(dp0
I0
(dp1
Vdice
p2
cnumpy.core.multiarray
scalar
p3
(cnumpy
dtype
p4
(S'f8'
p5
I0
I1
tp6
Rp7
(I3
S'<'
p8
NNNI-1
I-1
I0
tp9
bS'\x1a\x0e;Y\x8b\xca\xe2?'
p10
tp11
Rp12
sVsample_idx
p13
g3
(g4
(S'i8'
p14
I0
I1
tp15
Rp16
(I3
S'<'
p17
NNNI-1
I-1
I0
tp18
bS'\x01\x00\x00\x00\x00\x00\x00\x00'
p19
tp20
Rp21
sVfake_frac
p22
(lp23
F0.02600286532951283
aF0.024071266110689857
aF0.027341796270274065
aF0.025037900322152678
aF0.029806046776953723
aF0.021432640273426323
aF0.021936978464884235
aF0.02527870482141583
aF0.0269842020622457
aF0.020839253575826416
aF0.02850469517136177
aF0.025662310556649134
aF0.028687844976665888
aF0.023106455588207356
aF0.02832982992547289
aF0.025036541091046194
aF0.026297136376523894
aF0.02135972909611873
aF0.027217549225769386
aF0.027412176877189595
aF0.02801398337112616
aF0.022811271451776118
aF0.02727882358576417
aF0.024524961642865516
aF0.02716600140878134
aF0.020733463999811033
aF0.02908742973328542
aF0.02706328101098998
aF0.022758231950772645
aF0.020159954569116414
aF0.026398852223816292
aF0.026550128051502486
aF0.024222347523728916
aF0.020063882645214668
aF0.02384809644065368
aF0.028505519855000754
aF0.02673746534467359
aF0.020795596226681357
aF0.023877448277515343
aF0.02794134897360697
aF0.024224304345778932
aF0.020685090186993167
aF0.02301079903263649
aF0.02883659264169698
aF0.02410062656935671
aF0.022934049875076547
aF0.026195247638133346
aF0.028405346888826063
aF0.02717416921989152
aF0.021824181004006547
aF0.026313907758312414
aF0.027747679841710962
aF0.02781779110680797
aF0.021544533984916424
aF0.025815867547133633
aF0.02396826142072392
aF0.026493958343128433
aF0.022607793677361505
aF0.02691799735862642
aF0.02608634178527659
aF0.02916068950920671
aF0.021729867916489082
aF0.028867753190269012
aF0.029260623694769623
aF0.024232138226905158
aF0.026083657403016155
aF0.03343005827477869
aF0.027934537246049593
aF0.028227519471323983
aF0.022776778103987066
aF0.029429229709508016
aF0.022781914521136242
aF0.023613502866174366
aF0.02291204730229115
aF0.027802775541135725
aF0.025852159429469522
aF0.022643111540910858
aF0.021919501699831152
aF0.0292461832061068
aF0.03093269253421907
aF0.02608448435167849
aF0.023277356832379224
aF0.026107670319199555
aF0.02892261499847522
aF0.0209282023452799
aF0.019683183253971948
aF0.02910583070903705
aF0.028694000984598005
aF0.01930693069306926
aF0.020916474951875624
aF0.028297862255296895
aF0.022483464603734727
aF0.023350253807106543
aF0.02447948633209002
aF0.02157504984334942
aF0.021764705882352887
aF0.021627868581806122
aF0.023834172509528906
aF0.02292283987199236
aF0.02703334190051163
aF0.02323222793527991
aF0.023156755230273166
aF0.025493128248949594
aF0.02388598485736381
aF0.024971703452178775
aF0.026523382144544104
aF0.02617352163661905
aF0.027355123508969598
aF0.024143448795180666
aF0.021307186461451383
aF0.02564285036530974
aF0.029382036997860916
aF0.023736708384304073
aF0.02179676685202125
aF0.02630890363709882
aF0.02775819113430163
aF0.02276802567006412
aF0.023289802460987167
aF0.02171161057634886
aF0.023917031183857712
aF0.021797980273534
aF0.023614639194656072
aF0.025837571936862654
aF0.022767815228616976
aF0.023041040380718976
aF0.020627295846284213
aF0.02523072520449282
aF0.025223454536945984
aF0.028973843058350032
aF0.022407650478154833
aF0.026327713256862072
aF0.023630153011089738
aF0.0278283485045513
aF0.027286902286902222
aF0.02838286985007525
aF0.023233459933417678
aF0.02476091279234915
aF0.0220994475138121
aF0.027522281639928634
aF0.02135967460778612
aF0.027792902630146
aF0.023880878778582665
aF0.026396227756320577
aF0.02462536762989584
aF0.027333128413685414
aF0.025097523147060145
aF0.02962379451923988
aF0.02221858409149374
aF0.028344024708956927
aF0.023412549314296392
aF0.024556649075262622
aF0.02353545494874962
aF0.0263652587745389
aF0.02414553734493958
aF0.02750230763768898
aF0.026120364513786336
aF0.026782319391634918
aF0.02195444040937598
aF0.027745995423340893
aF0.02432249480637701
aF0.02489468548444671
aF0.01936727306914864
aF0.026507177033492757
aF0.026754519661406365
aF0.022191137769980267
aF0.02263476153502265
aF0.028087340412838495
aF0.022323409223584303
aF0.02146422628951742
aF0.023819651212250048
aF0.023929290025869444
aF0.023731892496157193
aF0.020500815776406278
aF0.021857283418450963
aF0.021342332921380307
aF0.02466806429070574
aF0.022311404137403797
aF0.02546653071870622
aF0.024944886418096363
aF0.021751320031774164
aF0.022942737959802752
aF0.02700393906316732
aF0.024866405415033783
aF0.02192860454334719
aF0.0265669515669515
aF0.023965244492715924
aF0.029084483499689503
aF0.023031601499732136
aF0.025739995264030247
aF0.022096063696968215
aF0.02829247434435569
aF0.02052703930660076
aF0.023834294902109088
aF0.020769067746720934
aF0.024862402732966346
aF0.022016168487757094
aF0.024923376654232637
aF0.020516323550195458
aF0.024852268394967535
aF0.023036209750751886
aF0.023143317841221606
aF0.018688285061155187
aF0.0273308458302635
aF0.022167142122246592
aF0.024458786825120805
aF0.01813495782567943
aF0.024529999526447827
aF0.021499371771604027
aF0.022025388404698698
aF0.019501879699248072
aF0.022541761579346946
aF0.022052152876317146
aF0.02428455787819622
aF0.017108700256512798
aF0.024566062790477034
aF0.025824163041202275
aF0.021307792361357405
aF0.01837740923352752
aF0.02360192064212507
aF0.023152789759611967
aF0.019909054496618946
aF0.0200136403189012
aF0.021642553393675854
aF0.023130515559684105
aF0.02297191795405611
aF0.017661131438221178
aF0.02520828882717362
aF0.019396501660898
aF0.021918002553553643
aF0.018407774247804105
aF0.025139064626256296
aF0.022903248308414854
aF0.019780895819037882
aF0.020134543914945617
aF0.02401445622711488
aF0.01783852658403795
aF0.023858970123188692
aF0.019472140762463296
aF0.02437568638685951
aF0.019908934628072247
aF0.024145060481475262
aF0.01999013412886702
aF0.021697663328564563
aF0.022656067336918346
aF0.020950020258836376
aF0.02389736118617378
aF0.02771274308375931
aF0.019244675639739625
aF0.02473607702023205
aF0.022650692624485158
aF0.026288217925516652
aF0.019332695136472903
aF0.03098787326846563
aF0.024406224406224346
aF0.02414228232661121
aF0.02020296497217411
aF0.024076320985891977
aF0.024828907107654157
aF0.025245174067622646
aF0.021792955246192604
aF0.028764441898214387
aF0.02396554952256126
aF0.02825008429266406
aF0.02062146229184766
aF0.031117161006829937
aF0.021578197613320516
aF0.02297561673903702
aF0.025749162390759292
aF0.02614036758403955
aF0.02325908888210852
aF0.024462282352380665
aF0.019723126654329907
aF0.02703922826525999
aF0.02379891673896217
aF0.025622622550778663
aF0.02610244153896615
aF0.033667861409796815
aF0.022358583721258235
aF0.025458808891441087
aF0.01953079587993206
aF0.029739421467845972
aF0.020910758808862912
aF0.025339733944734957
aF0.021653035877486883
aF0.03086655526378603
aF0.018676277850589732
aF0.02812905707553967
aF0.021740663266505224
aF0.024589969942962572
aF0.019825794549657848
aF0.02506621719239098
aF0.018884578755429562
aF0.025030221147692468
aF0.02145721454869493
aF0.027705275256818495
aF0.022850848410987102
aF0.029824059505077886
aF0.020584190036599247
aF0.028819695872556048
aF0.021532052332248877
aF0.029022427503452145
aF0.024116394938130045
aF0.023415081144951593
aF0.01835440085824894
aF0.02542010823127308
aF0.025775734690526946
aF0.022713616151904762
aF0.021975697463980957
aF0.02478297062670942
aF0.025931508785152324
aF0.022227012526646016
aF0.017495912170053685
aF0.026802218114602525
aF0.024906336153066696
aF0.02532528439837412
aF0.019365250134480858
aF0.022965987679089802
aF0.023865176943574342
aF0.026219658735880735
aF0.019745955718344203
aF0.03050041602282175
aF0.02440455238765687
aF0.025941821649976094
aF0.02188004586619235
aF0.024488729483860182
aF0.022696866564957112
aF0.024903433218972613
aF0.02007183604479184
aF0.029633338101368353
aF0.023006566604127525
aF0.02452010314201121
aF0.02128159353565719
aF0.03386558627264053
aF0.026670443012579887
aF0.02553811605628413
aF0.0231129521971426
aF0.0251856406375632
aF0.02746433893974871
aF0.023271894894966443
aF0.022368359025126048
aF0.021847141328895703
aF0.028725016576678912
aF0.024025589385143882
aF0.02516691131208858
aF0.02284438745220958
aF0.025779390626104518
aF0.02247511344467933
aF0.02395970627000559
aF0.030080739276442635
aF0.023639934688468672
aF0.023883844116534183
aF0.025398242563789235
aF0.026662536634182308
aF0.019832421902504237
aF0.025521600684378056
aF0.019842651256701198
aF0.024094090757582915
aF0.024401137779449387
aF0.026951739244303642
aF0.02358943156022554
aF0.024880838894184878
aF0.024504521388745665
aF0.025298681517444844
aF0.021255249650023282
aF0.023366929732813485
aF0.022928718044411215
aF0.025750563664411946
aF0.024061961321400684
aF0.023761578735400666
aF0.023197506853808787
aF0.02510042547122715
aF0.025777085986510007
aF0.026124125414905493
aF0.024096385542168617
aF0.023728165547563802
aF0.02477312905126688
aF0.02339916075958364
aF0.022925049125105214
aF0.025024382121363434
aF0.02489070652940341
aF0.025318566154578954
aF0.023422327257411554
aF0.02555500035691335
aF0.024154817951690305
aF0.02598299554645258
aF0.023686728431075065
aF0.02476985859352751
aF0.023054005485670992
aF0.02522930371837489
aF0.019754897321850998
aF0.022824570117552394
aF0.022383645268911286
aF0.02632827324478172
aF0.02537856555933789
aF0.02021842489290585
aF0.0219432030455652
aF0.020897080101520384
aF0.02244629342358853
aF0.024484383509743968
aF0.022373057730056944
aF0.03158196956646561
aF0.021134227081026268
aF0.02228248054704074
aF0.019277165428828187
aF0.02763167289430462
aF0.02459966411997061
aF0.019383592331454667
aF0.02256453740342938
aF0.029927217008235897
aF0.023099990628806993
aF0.018707163646605907
aF0.02017873941674501
aF0.021777418126427976
aF0.022217030720710143
aF0.02039282022366314
aF0.0229838994837462
aF0.02663548056039517
aF0.019928426075363086
aF0.0213372942896213
aF0.022910260322527586
aF0.025991661703394814
aF0.017839698562590087
aF0.023390158213670926
aF0.019772149515111526
aF0.030417617960426104
aF0.01655467460299003
aF0.022611578075056177
aF0.02141075714084038
aF0.029758495609011
aF0.018247494756466982
aF0.024191074083689257
aF0.022205027199399683
aF0.030293648336469
aF0.01862301172645996
aF0.0282545047725595
aF0.022912029987114856
aF0.028523967726625465
aF0.019485797895812482
aF0.029535965644757176
aF0.024588426482017887
aF0.022394078853726757
aF0.018213114372775653
aF0.02956783631322299
aF0.021735546920993706
aF0.023185865858279597
aF0.018416334893250404
aF0.02264438776726331
aF0.019585793271483413
aF0.02232185216813734
aF0.01832539774706766
aF0.02509693841139942
aF0.020645100884789987
aF0.02066595568195279
aF0.020477498022059802
aF0.023333884961819373
aF0.02632937532266385
aF0.022792495790147704
aF0.020577575119840943
aF0.018383219420221496
aF0.022253942996209055
aF0.02035297466552799
aF0.02086156146334621
aF0.017947809658755417
aF0.025336370253833267
aF0.020242818788757107
aF0.02271878210516479
aF0.022178951367781103
aF0.0218229705578026
aF0.020727972077783267
aF0.022267964071856234
aF0.023296377711937245
aF0.02078597708152691
aF0.02044746665398602
aF0.02283949172770453
aF0.023194894265574337
aF0.019413155984357024
aF0.02520768370188754
aF0.022254984554900256
aF0.023913871951219454
aF0.02491002752099352
aF0.02490316754984192
aF0.020414852273259305
aF0.022295426334383597
aF0.020055959182713738
aF0.0265632066265203
aF0.020943020943020894
aF0.01713893426129769
aF0.02216399943350795
aF0.02729299060988327
aF0.01903656413232729
aF0.019069701414848768
aF0.020540975459687104
aF0.02762338684668775
aF0.019133632829775798
aF0.018230765597695132
aF0.024011366327255448
aF0.03210135263859775
aF0.020256928473528887
aF0.01851501089118283
aF0.019328562011488793
aF0.031152647975077805
aF0.019876356001399698
aF0.01980574224037612
aF0.020785110302801217
aF0.026013409462436857
aF0.01778036025566527
aF0.018742111404824797
aF0.024025374582810555
aF0.023138667231598468
aF0.020068058922244964
aF0.020121154531416986
aF0.02008051036982975
aF0.023683464120260886
aF0.02162527060685765
aF0.01907266567157102
aF0.021539331668002024
aF0.023817392125389424
aF0.021346661372819157
aF0.01916553997960099
aF0.018921095008051485
aF0.025815890695424344
aF0.02254849326579673
aF0.018937239287068593
aF0.0205406681619643
aF0.026451399394856214
aF0.023847896666900185
aF0.021927940825578567
aF0.02180011411182954
aF0.027467202458338193
aF0.024364580166951096
aF0.02272890056105999
aF0.01912638924786762
aF0.027676758135361006
aF0.025886325267304385
aF0.020824913823844
aF0.01794587974847503
aF0.028047771077214075
aF0.026420048292191137
aF0.02255585258735912
aF0.020757020757020708
aF0.028465023602248667
aF0.028856773587122478
aF0.017655133241823218
aF0.021690898791540732
aF0.027151261104627556
aF0.027762026273509054
aF0.020203222045070506
aF0.020878836985368323
aF0.025350848178424548
aF0.024707259953161535
aF0.02167770733907918
aF0.023632457445050346
aF0.02433251278167008
aF0.028954069602942493
aF0.01847624482807814
aF0.021281621276897224
aF0.029660815375101016
aF0.023933062216612854
aF0.021745343685990515
aF0.018624911702378105
aF0.030717371694440415
aF0.02398597311513729
aF0.018633836757092025
aF0.025111027118964315
aF0.03540097263278336
aF0.02060750169009483
aF0.02220841003083832
aF0.025842961565668413
aF0.029832935560859117
aF0.022503711952486957
aF0.024368188091951775
aF0.022816568047337223
aF0.027747979689623045
aF0.021901027770688763
aF0.020344287949921703
aF0.021839405064482675
aF0.02941106199976101
aF0.024248594368217625
aF0.020661943031052305
aF0.019843144665973683
aF0.027673914596680015
aF0.0237054940968671
aF0.024581191699980905
aF0.022117313820370535
aF0.025873992464348676
aF0.02477735443304265
aF0.023824257425742516
aF0.02223167245493415
aF0.027370432290422672
aF0.025686260673205782
aF0.024212843334290305
aF0.02506904610155082
aF0.029378800524621367
aF0.026556755111121457
aF0.020838283514707928
aF0.020372635739154935
aF0.025178745338369023
aF0.02747808100039953
aF0.024945149289325515
aF0.020895733591188837
aF0.027158492095662682
aF0.02749576988155662
aF0.02565135961688906
aF0.02530349916686497
aF0.031101966601272714
aF0.02406863321189323
aF0.023033494638959998
aF0.021479320566508205
aF0.029088913282107505
aF0.02281030444964866
aF0.02112559828354509
aF0.020243010498997238
aF0.027008376166000315
aF0.02122376311844073
aF0.024939317500356894
aF0.022169977665451927
aF0.03152443680794188
aF0.024210229409552406
aF0.02461531143720117
aF0.021799519751400674
aF0.025506216696269922
aF0.02183661077117095
aF0.025061226430796238
aF0.023496906437443857
aF0.024118958402504328
aF0.023727784394777962
aF0.02694639362260722
aF0.02379886425222078
aF0.027990243671410574
aF0.02641915271673051
aF0.026870943108056444
aF0.02489008651255135
aF0.025678546141137536
aF0.02503454251656864
aF0.026624398150355087
aF0.02205899774908181
aF0.02597833558510506
aF0.026349042916647105
aF0.024893702938312015
aF0.02352496575180683
aF0.025183530921099463
aF0.02538059158828077
aF0.024573948277916757
aF0.022981942759260524
aF0.027542724406835837
aF0.025809633404570053
aF0.018460153084196265
aF0.020794530236944428
aF0.023404205222386985
aF0.02675460137047165
aF0.02506492578208757
aF0.024469704175782304
aF0.02909952606635064
aF0.026501229076436785
aF0.02547360895984743
aF0.019873958505440506
aF0.023741959894059722
aF0.029316950102784456
aF0.02266187905737992
aF0.024029051807484554
aF0.026685592618878574
aF0.026545147837495838
aF0.023662159588649725
aF0.01988290398126459
aF0.026903493191237353
aF0.02952728292888196
aF0.02153999100527843
aF0.02367339224117558
aF0.021712480550709554
aF0.024931200149260632
aF0.022051500924740307
aF0.021553448316430922
aF0.025098762803680775
aF0.02686706279855522
aF0.023286728226552984
aF0.02242942364601432
aF0.02818279441594075
aF0.024153572764683818
aF0.018880007589952754
aF0.023640103070849332
aF0.02601548540798088
aF0.026112275797810326
aF0.017873542917696883
aF0.02153969830235962
aF0.028651859627358757
aF0.02255744116209227
aF0.018372330085579456
aF0.019164793564414955
aF0.025636160978964533
aF0.023330294317039476
aF0.02387078330474551
aF0.022656639225641092
aF0.02508773593853736
aF0.023357391446523195
aF0.024767580452920084
aF0.01954912040748946
aF0.024597941078798743
aF0.02494822067407262
aF0.027272944379432982
aF0.021729353563566593
aF0.02662945795099795
aF0.02406724741130333
aF0.02353782013103032
aF0.018833764401598826
aF0.024967867853572558
aF0.022069997428284145
aF0.02551497566005605
aF0.019812917175895412
aF0.02577760867497378
aF0.02202181208053686
aF0.02422401836529718
aF0.02109704641350206
aF0.02732397057418547
aF0.021308202961793737
aF0.02117697903911253
aF0.018604651162790652
aF0.02579210146470735
aF0.022811387071995478
aF0.022559465114601066
aF0.018241928298436027
aF0.024901392387017
aF0.023870636550307953
aF0.022505267190193395
aF0.018348407207122067
aF0.022594579199696152
aF0.02199033545766505
aF0.02375376380060215
aF0.020973765178382644
aF0.022654184234974575
aF0.021908903853348247
aF0.021833019160562118
aF0.02207724672623263
aF0.021238352017406883
aF0.020814859756382083
aF0.021808867183759403
aF0.02290292845493861
aF0.021445122239561114
aF0.022566433894174384
aF0.023480333730631648
aF0.022571287058656988
aF0.024270237025121766
aF0.022772877875775765
aF0.021553067536141494
aF0.023335068869219426
aF0.02381177359916842
aF0.022046949235846134
aF0.02000956251494138
aF0.02304843237632399
aF0.021949614589208445
aF0.022895967610582352
aF0.019365094657738766
aF0.02131085432847125
aF0.022661489587010183
aF0.021353718893045468
aF0.018829858776059135
aF0.021383054047675192
aF0.022789728039420015
aF0.026099284187040935
aF0.019559961315280417
aF0.022067721804332814
aF0.024228918233327745
aF0.024268678964039444
aF0.01813714863790732
aF0.026463056056150937
aF0.026170177396755975
aF0.02209623829549938
aF0.016496276965068075
aF0.025253360421440493
aF0.026046002711638577
aF0.021852092419040497
aF0.02012406231967681
aF0.027131141729492055
aF0.026484083398711392
aF0.023196776672799627
aF0.020573461196433242
aF0.025177488363345654
aF0.02765460353788197
aF0.023442967109866986
aF0.019863573041264303
aF0.025579081995168333
aF0.02805354815780114
aF0.02339453816758313
aF0.020014433485686746
aF0.026936981640320344
aF0.03109277760556992
aF0.024388536221060436
aF0.020987921139207017
aF0.02648616833431424
aF0.03268067608596899
aF0.025181960729247055
aF0.020802162266518605
aF0.025555109842138733
aF0.027494666982697254
aF0.022319138019497125
aF0.01850468640821141
aF0.027175450174413057
aF0.02742047108798886
aF0.022253876331029276
aF0.019348441241202458
aF0.029595714049703736
aF0.02863283582089545
aF0.02631764291583513
aF0.02000526454330082
aF0.025571273122959676
aF0.026398776816856928
aF0.025922630198576185
aF0.01681194029850742
aF0.026688966362008792
aF0.022316962797122798
aF0.025328022492970885
aF0.01845468907080277
aF0.022752328008819406
aF0.023747204111740295
aF0.024304258498318958
aF0.017220290202662147
aF0.023233392122280955
aF0.02250666159116858
aF0.02415041457433137
aF0.016914378414485728
aF0.023824718145075457
aF0.02707002588274398
aF0.025093720712277355
aF0.01804967845274805
aF0.026661323401145597
aF0.025962591023749402
aF0.02457013999812077
aF0.020103761348897485
aF0.025026511134676504
aF0.029625409485828157
aF0.023785973340869425
aF0.01927635832475271
aF0.02265067056355617
aF0.029651452873672383
aF0.026758770275367723
aF0.019729762047112232
aF0.021291160155788927
aF0.0284892154764452
aF0.024847336281322324
aF0.01837024213133276
aF0.023077285357697867
aF0.02555196041111528
aF0.02505700115177579
aF0.018307945362225516
aF0.02476217453910246
aF0.02882982032203261
aF0.024503561152775754
aF0.018357579942379534
aF0.023523865645256277
aF0.02606663327848125
aF0.024954638640808668
aF0.02088804010503695
aF0.026457292410183138
aF0.0246139225469232
aF0.02519625816763027
aF0.02176051438305218
aF0.02301265105740176
aF0.02556084618482452
aF0.027431244683867245
aF0.022017421435102692
aF0.02190849426318518
aF0.021420090239847964
aF0.028236070519468207
aF0.022590217287259445
aF0.018545069925960705
aF0.020890468127727515
aF0.028089489475300555
aF0.022831160082759892
aF0.02263020034452646
aF0.027326333956565446
aF0.028069261198095486
aF0.019369586140519684
aF0.023003607003798048
aF0.027438878522558663
aF0.02602326786303041
aF0.019749171111431405
aF0.024137357018857993
aF0.023255813953488316
aF0.02554933421164065
aF0.015994070957253477
aF0.026114771316719118
aF0.022011749190744462
aF0.02629532763129986
aF0.015861986342398427
aF0.02888413038305965
aF0.022128354053664805
aF0.023356360731237313
aF0.01317076662451382
aF0.025568519354608688
aF0.019379568126086186
aF0.026188624095419874
aF0.013340027253819088
aF0.02419872938825035
aF0.02177078608770375
aF0.024359275805313836
aF0.0155162933033686
aF0.02887697975979705
aF0.01939752992045097
aF0.023411922651152876
aF0.016914329399397923
aF0.024533903336895795
aF0.02296900021511025
aF0.022260354473226406
aF0.0190297700569451
aF0.023654121010004706
aF0.023834493278672837
aF0.024114579646539666
aF0.017973112224112683
aF0.02415851038433988
aF0.024248625752564014
aF0.023179194803374013
aF0.01767234134511485
aF0.02390495619824787
aF0.02423012652184286
aF0.023008766363486748
aF0.018587360594795495
aF0.019215601921560146
aF0.024990461655856482
aF0.023860659413277894
aF0.018006137911192054
aF0.019260602878350273
aF0.028775602877560216
aF0.0220500176118351
aF0.019203107019562668
aF0.023814091802964114
aF0.02469665546258546
aF0.0230664218801487
aF0.01849471579548696
aF0.022479354487588976
aF0.024195476497872077
aF0.02478384809291581
aF0.019907860501754422
aF0.019606915635864763
aF0.02632521062555186
aF0.023901656363550506
aF0.018389768170277345
aF0.022331089918904083
aF0.02892759726276492
aF0.02364260845017403
aF0.020673374982116407
aF0.025276348389555874
aF0.019794197513219904
aF0.023136065458136363
aF0.01995798319327726
aF0.0215980675413252
aF0.02292455997314272
aF0.0252926076819819
aF0.01996027092358131
aF0.02737731525682636
aF0.02235487169730547
aF0.024135421313361292
aF0.02194679275923002
aF0.021914291826111706
aF0.024591921839628203
aF0.023696905518296212
aF0.019564644747240068
aF0.024351961950059394
aF0.02681290445374946
aF0.02411904370107425
aF0.016819134743663006
aF0.019270523939645907
aF0.027719264649559486
aF0.024790856604218158
aF0.018559762435040785
aF0.022584930726893094
aF0.027676515732923953
aF0.02228031748274801
aF0.018398913224814656
aF0.023015533703861994
aF0.02303212563845524
aF0.024601786642718664
aF0.018049511307697753
aF0.023593768581281902
aF0.02324750494247666
aF0.02656889820017135
aF0.018832078653019498
aF0.02254370961611549
aF0.022812687013764158
aF0.025370326828121265
aF0.019470663567803397
aF0.022208527885093924
aF0.020054586448320824
aF0.02424613356559397
aF0.019135449432847156
aF0.024488633667125375
aF0.027110451761102536
aF0.023452047045513413
aF0.022279755825277255
aF0.020914038548375546
aF0.02150921823638697
aF0.025533824640967435
aF0.020424251110792553
aF0.026341463414634083
aF0.02501134707723173
aF0.026698113207547107
aF0.020700904315286955
aF0.026637731619488167
aF0.021605895118403114
aF0.02617168053481254
aF0.020357261627630716
aF0.027155754602971427
aF0.022627023676116395
aF0.029345426054749567
aF0.01940035273368602
aF0.02415908711117471
aF0.02358400761542117
aF0.030135681980480764
aF0.022683500962978758
aF0.023002421307506
aF0.02551020408163259
aF0.02798849071409881
aF0.021655380345050317
aF0.02094303209358838
aF0.02611984964926135
aF0.028642797668609422
aF0.020230105465004745
aF0.023398780022874516
aF0.025556589591237678
aF0.029378933618335042
aF0.022081417784235672
aF0.02181930663621
aF0.029314864247408725
aF0.030402746977609196
aF0.021236906299325533
aF0.02404270021683698
aF0.02541299098711414
aF0.029065892211007357
aF0.018115331873842185
aF0.0205853056965327
aF0.025213288213145165
aF0.026687560842415112
aF0.018917171523670364
aF0.023891514475027846
aF0.027889680818097236
aF0.025116808576239772
aF0.017931330882001772
aF0.020665656661300963
aF0.02731082432496779
aF0.02432775479503567
aF0.018476026578708307
aF0.024506418347662425
aF0.023694321901238026
aF0.023322653599698397
aF0.0200086058519793
aF0.024647719130642405
aF0.02630580198301621
aF0.024826029716005206
aF0.01991097496769248
aF0.021820167628273567
aF0.02520948390782702
aF0.0246438378670171
aF0.0185442189892802
aF0.024014617593317612
aF0.020362960845955937
aF0.02625928984310481
aF0.01882003639498128
aF0.023812338906098456
aF0.019263280710526895
aF0.027722071487554494
aF0.01927977306601274
aF0.02333238582527946
aF0.023134096503596723
aF0.023219668425018783
aF0.02031118079845611
aF0.025522982610977206
aF0.020558777016341543
aF0.02417847595164299
aF0.019044638127798864
aF0.026210731429114523
aF0.02195308394247761
aF0.024561238413400403
aF0.019482079369654993
aF0.022924352033727727
aF0.023132564635107013
aF0.02292897667082553
aF0.021239788563190722
aF0.024345321022928464
aF0.02693804969481418
aF0.02654595310136151
aF0.02273436562237421
aF0.02616037758224029
aF0.022029068792950645
aF0.028775620916574218
aF0.023176909108286285
aF0.025821874038484235
aF0.022128757826315484
aF0.025721722669190664
aF0.021978021978021924
aF0.025284360189573397
aF0.023987257512362057
aF0.029448725548310538
aF0.023091184898027924
aF0.02909177478871556
aF0.024605783430994177
aF0.029827463956511393
aF0.01998231230728776
aF0.023179200341288782
aF0.025014362313289865
aF0.03027003999715989
aF0.02088139177239518
aF0.025242259513117406
aF0.024590941427555076
aF0.028581577077906633
aF0.020074774367156382
aF0.02259606284308153
aF0.024582406662565597
aF0.025821540787639617
aF0.02199007822934549
aF0.02592820609964002
aF0.025396825396825334
aF0.025382270224280894
aF0.022941134430759645
aF0.02132216234026024
aF0.02650419610260294
aF0.02845662963838329
aF0.024393148955430037
aF0.021128751118858008
aF0.025656197486449962
aF0.023801090883332095
aF0.023072554309243164
aF0.021409687470493766
aF0.022846353552041485
aF0.023980589385409003
aF0.023098376677552327
aF0.022653263485770864
aF0.02356822443215526
aF0.02180963572267915
aF0.024362444792705454
aF0.020363585118376503
aF0.023691068467187812
aF0.022888935840552096
aF0.02255692768934251
aF0.020453263118299744
aF0.025475730009789112
aF0.02166318899022338
aF0.02414698162729653
aF0.020167868542380847
aF0.024274506998593067
aF0.022539779537922713
aF0.019963269492212606
aF0.021163021399215783
aF0.024399551601593187
aF0.026220059526621566
aF0.021080118694361966
aF0.023078008845393752
aF0.02205256689042256
aF0.026299636432314966
aF0.01976275150965458
aF0.02136862643691666
aF0.02399790909306906
aF0.022366556447803443
aF0.022224337314995426
aF0.01948541539041511
aF0.026455152105250596
aF0.024215649215649157
aF0.021275080137718103
aF0.021607850537837276
aF0.025565130212684636
aF0.022722451384796647
aF0.021457489878542457
aF0.02060426651630481
aF0.026223400444221473
aF0.026293449040230094
aF0.020280438573441893
aF0.01959214430367819
aF0.024967806553154896
aF0.027006009190526623
aF0.02213337141225184
aF0.026187043558412643
aF0.02785913279519959
aF0.025190282065178912
aF0.021845646406462818
aF0.02139644970414196
aF0.020755922656379378
aF0.02308489588240831
aF0.02109623811690328
aF0.023973650158804788
aF0.02251420454545449
aF0.021813898704358015
aF0.021840315073397728
aF0.020600715928217477
aF0.026358986558819967
aF0.02396015296728194
aF0.024425872267056142
aF0.022838771135984703
aF0.0266834576818894
aF0.027128933576798055
aF0.025663061901692506
aF0.026428063522161586
aF0.026441224596267337
aF0.027286257648420638
aF0.023558276363116592
aF0.024593274201963607
aF0.023539212186123946
aF0.027926884059684486
aF0.022261374729173063
aF0.023111825314301865
aF0.024860959262252163
aF0.022502653614813014
aF0.019455530216647615
aF0.024824378203911084
aF0.02860083289454782
aF0.0253917826406505
aF0.02332722382233219
aF0.026180502665651115
aF0.027636155715442826
aF0.02391643427707136
aF0.023711658628145064
aF0.024397754459104092
aF0.019516003122560452
aF0.025151143019081744
aF0.023834493278672837
aF0.023938242168134224
aF0.01831812716599472
aF0.024155158599236403
aF0.024595807317015207
aF0.023418872022474505
aF0.018034414295168718
aF0.02637804589543405
aF0.02385057471264362
aF0.022458291743904124
aF0.02276219065402883
aF0.02766434556827563
aF0.026591055302723373
aF0.018593237535688117
aF0.02640003822629963
aF0.022325734584891847
aF0.027223014740846343
aF0.01812047283108789
aF0.02708353131236333
aF0.02234175572699171
aF0.026497338330428905
aF0.020482497634815466
aF0.025277625853090086
aF0.02173245458625653
aF0.02733057890487717
aF0.021529289296867555
aF0.024703042922720114
aF0.022358251991207907
aF0.025253728498594308
aF0.022101141617133637
aF0.02409495266638118
aF0.019833305787075248
aF0.024480588863825183
aF0.020645009416195806
aF0.019818155988066438
aF0.025436939064714156
aF0.02304125549875158
aF0.022591645353793637
aF0.021748472116119123
aF0.029110155474693943
aF0.023113252552237326
aF0.023442319555829677
aF0.024308706241940817
aF0.031881178752187614
aF0.023896353166986507
aF0.021356339721377505
aF0.02140309155766939
aF0.026366363551138965
aF0.02614566872575773
aF0.02368209160233026
aF0.020385884139829554
aF0.024933612201254847
aF0.026608762416622612
aF0.020086694933320652
aF0.027175601711321905
aF0.02383293533736006
aF0.026269326207291405
aF0.021417933382189495
aF0.024097243655183818
aF0.021520200014019622
aF0.02967223371997875
aF0.020153031194820436
aF0.022887323943661917
aF0.023517860482513503
aF0.029924406567480306
aF0.023467534611665314
aF0.021424669247761284
aF0.025495750708215238
aF0.024749035674069754
aF0.023554451933309628
aF0.028246436475263478
aF0.023220501319877535
aF0.023979665243873138
aF0.025807825140748388
aF0.023820889822417358
aF0.02193105381165914
aF0.025307666523009083
aF0.02292918581359721
aF0.028416163937565766
aF0.025398383102014054
aF0.026111976981177253
aF0.022001837412546178
aF0.025534441805225593
aF0.02638114427627565
aF0.023028444082336817
aF0.020827449872917205
aF0.02542493590352287
aF0.0242648956891089
aF0.023881239242684968
aF0.021921795052339994
aF0.028550425647957057
aF0.025408988341481697
aF0.02245851611672701
aF0.019828031762439458
aF0.026494468448791542
aF0.020844991606043597
aF0.020428178447554072
aF0.01889552027553014
aF0.025896224163444493
aF0.01972002720003747
aF0.025380832433729097
aF0.02035803693731987
aF0.024698680838948408
aF0.020013092677452493
aF0.02158925546888041
aF0.018003581864454665
aF0.023402789327377643
aF0.021168600299401145
aF0.02768273716951782
aF0.01871356027835241
aF0.023999620933923986
aF0.01977401129943498
aF0.02347811504276365
aF0.019047843284987712
aF0.028950831439167293
aF0.021382734554311625
aF0.025074312014574683
aF0.019724608685418334
aF0.028337186300912726
aF0.02379105249547447
aF0.022701666067361806
aF0.019286017048933218
aF0.03036316255050558
aF0.02291237595955808
aF0.023477324398707613
aF0.022356765925367453
aF0.029796355841371847
aF0.022895003654712167
aF0.021278630516903308
aF0.02111514351699104
aF0.027066481596706965
aF0.021745256434341484
aF0.020876627254269624
aF0.020920600555372475
aF0.025009600614439263
aF0.018672587053049732
aF0.020714643274296153
aF0.020319063576721526
aF0.027495830355015422
aF0.019537106446776566
aF0.03038660782808895
aF0.019651525455526064
aF0.02507709593363767
aF0.019163311909974765
aF0.022403258655804427
aF0.018792993404723023
aF0.02248071216617205
aF0.018959684240202942
aF0.019388516032811286
aF0.017389871987951767
aF0.023379282432207167
aF0.017557485466826665
aF0.025517608359133064
aF0.016941187527902402
aF0.02465485586208535
aF0.01773893377935872
aF0.017556061877922968
aF0.018638802598136075
aF0.027008293697268034
aF0.016905162738496033
aF0.021017566563615833
aF0.017668260736413064
aF0.030927835051546317
aF0.01839570688725888
aF0.02369975507851889
aF0.021740669924226276
aF0.02608134896940451
aF0.019373753958015667
aF0.02168015173705308
aF0.02059010825727017
aF0.025940028557829543
aF0.017823771257708797
aF0.025739255357356574
aF0.022822410897996775
aF0.026079927727456372
aF0.018620112511041845
aF0.027401886291820374
aF0.021591043017088928
aF0.029656956688386284
aF0.02118762848065777
aF0.026696865286846668
aF0.022805772415424596
aF0.02863044626987551
aF0.017497324212387692
aF0.024938194561121316
aF0.024277702846596094
aF0.025011336244958292
aF0.018265686933543454
aF0.024149577804583777
aF0.02455197984503488
aF0.025837687550932298
aF0.01921383210494595
aF0.02499999999999994
aF0.02414047092926551
aF0.02573034787622519
aF0.01791169119688971
aF0.02109038737446193
aF0.02363679468942621
aF0.024882763900851694
aF0.01704980398524666
aF0.02721300469933819
aF0.023548662492885543
aF0.024352356371283756
aF0.017317321958456932
aF0.02490164091737831
aF0.021941067187169244
aF0.027345433647813736
aF0.017817938110974978
aF0.025842884831662256
aF0.02151172400765066
aF0.02500773312394407
aF0.020535506402793897
aF0.03138065260223934
aF0.022378937470615836
aF0.03014846743295012
aF0.02256778495325572
aF0.02601315002988637
aF0.023060451325975895
aF0.025818910027177736
aF0.019598224713851857
aF0.023894206669371913
aF0.02401736422403618
aF0.02680574783978606
aF0.02064615241376095
aF0.02749272111116408
aF0.02301471625370252
aF0.02770859277708586
aF0.023730555425795243
aF0.024773543187275565
aF0.026593229954614158
aF0.027819566826658957
aF0.02347406852649311
aF0.02437277696879992
aF0.02348350478893219
aF0.02471075560634189
aF0.02250285954387352
aF0.02067988668555236
aF0.025217638152914397
aF0.028197381671701844
aF0.021351816532539373
aF0.02367493673281137
aF0.026100524847510458
aF0.028112931468732692
aF0.020354394963860992
aF0.024803186948686273
aF0.02468756644380915
aF0.026517944205294013
aF0.01974911397127397
aF0.0221286062528104
aF0.028527168732125765
aF0.024968462142670067
aF0.0221026780493509
aF0.024801023308698066
aF0.02815425291189284
aF0.024539291511505718
aF0.02089930335655473
aF0.021592953878208112
aF0.028240076518412174
aF0.029272853683680492
aF0.02528995224315989
aF0.02187048314100888
aF0.026081135999617446
aF0.02981959504845977
aF0.021506887826820302
aF0.022095509622238007
aF0.025366711837006332
aF0.02751830952095083
aF0.020895872420262616
aF0.023329294657068816
aF0.026462791138041973
aF0.02352152147356817
aF0.020390903965419985
aF0.024142615410281405
aF0.027793655330094244
aF0.025622027295107375
aF0.01907369702075869
aF0.02607321569660252
aF0.027387173396674517
aF0.026994011976047838
aF0.024468360690483422
aF0.024732285530301164
aF0.022964608042337988
aF0.026983824020613573
aF0.01959218192069155
aF0.026580134093674625
aF0.026349492458020998
aF0.02441598311507645
aF0.023474841656659782
aF0.024581005586592118
aF0.021486397439517975
aF0.022095475460122645
aF0.020755470935288952
aF0.02613522656882826
aF0.022512829001820837
aF0.02804567919005799
aF0.02130608409678172
aF0.027016688184382853
aF0.022521032233670427
aF0.025698136705465283
aF0.02384420221762821
aF0.0211674150096215
aF0.022178997556752088
aF0.02681863087636436
aF0.022588910043955475
aF0.021520157372075886
aF0.022612169198944234
aF0.02495800335973116
aF0.019909587051741454
aF0.02510410469958352
aF0.02536300654835336
aF0.026116888118621156
aF0.020309113184431203
aF0.023526615969581693
aF0.027045075125208616
aF0.024687191108753767
aF0.019149831649831604
aF0.027592610227597306
aF0.024143965191070694
aF0.026306978523939286
aF0.0206885253574855
aF0.026083866382373783
aF0.027052704082844388
aF0.026600086426273522
aF0.01987899740708725
aF0.023978538021414437
aF0.024160852347727642
aF0.027291711672787433
aF0.018949483620729894
aF0.023535291038027643
aF0.022867650525720158
aF0.027014047304598325
aF0.01829410939035227
aF0.02639107423830633
aF0.019515509324336943
aF0.028252680382497758
aF0.020071667798674333
aF0.024990434283527777
aF0.02090028383101494
aF0.030281147698825266
aF0.01929260450160767
aF0.027427016446661668
aF0.02208821260781146
aF0.02620904836193441
aF0.021106020942408328
aF0.02896818757618483
aF0.018944106669170593
aF0.026752479527388805
aF0.018949584746753963
aF0.02878940549877638
aF0.019068788020589564
aF0.028756912719403633
aF0.022185932579027127
aF0.027509097873970437
aF0.018576649175412248
aF0.025487508716247022
aF0.01735836780220287
aF0.025433029536670263
aF0.01775161749935763
aF0.02573757208903287
aF0.02144477444400266
aF0.026093172882163645
aF0.01809375218312643
aF0.02743082244427357
aF0.02095077038707248
aF0.028678125149614524
aF0.01786297280910401
aF0.025210084033613384
aF0.020058858151853983
aF0.02404397705544927
aF0.019621141253507904
aF0.027199422313154344
aF0.018853713075202966
aF0.026156506701253718
aF0.02217289719626163
aF0.031191335740072126
aF0.0202513802419828
aF0.023080041009990167
aF0.01791233492554084
aF0.02463879054635914
aF0.021665410700828884
aF0.02473845858527684
aF0.018819265351641412
aF0.025875153588551265
aF0.022487271355836266
aF0.025204834330474
aF0.02056902985074622
aF0.02401041415553728
aF0.017336983224538458
aF0.024649752058157948
aF0.017790938979177797
aF0.02411556177201142
aF0.01838994182773499
aF0.020906590120798898
aF0.021814947452191976
aF0.026844989498587674
aF0.017051294029711256
aF0.026034680973366482
aF0.022069354119221417
aF0.030736465064498095
aF0.015501697693478478
aF0.026392611026033626
aF0.02328857169687289
aF0.030188040798569075
aF0.017820344698388866
aF0.025244495832731063
aF0.025392417574659296
aF0.026036247489534623
aF0.01719083468186398
aF0.021473128598848316
aF0.020310044794671495
aF0.02663379737045624
aF0.015731441814734144
aF0.023272604750788132
aF0.019728701174382992
aF0.027186675381896463
aF0.016030801540076967
aF0.021199462210698114
aF0.01745519210070659
aF0.026317702653580452
aF0.014719992511291533
aF0.02084787789787905
aF0.01817502219315045
aF0.02902189922012693
aF0.016124132451569143
aF0.02386514148103546
aF0.017840419554223594
aF0.029490811360499674
aF0.018896749477048867
aF0.020926144436149922
aF0.019348958941882974
aF0.026390266321569322
aF0.02302973100519107
aF0.0235149410317632
aF0.020000940114693944
aF0.026287812892625818
aF0.02074950874894727
aF0.025788798217788154
aF0.020195378545932695
aF0.027567528353444663
aF0.022649843753671146
aF0.027984849581433432
aF0.02057962805626352
aF0.02720235367882888
aF0.021950358781319793
aF0.024377305716972428
aF0.021309087491777037
aF0.02386789731756556
aF0.02075168799282303
aF0.026420015455950477
aF0.02307874201938987
aF0.02679688251707874
aF0.02113721516601074
aF0.029039338173222958
aF0.02424070930013199
aF0.02672204748985612
aF0.021137404940720746
aF0.030611997183987494
aF0.02279141970081846
aF0.024270913277052896
aF0.018692031042967964
aF0.022882415152389136
aF0.02348953797632211
aF0.024591738712776118
aF0.01970804646651047
aF0.025384020867548967
aF0.021422370304324312
aF0.0247689110755487
aF0.020302171860245466
aF0.026754079394538246
aF0.022973955036687945
aF0.028009120364814524
aF0.020082889283599716
aF0.02308632800326032
aF0.022615950690196576
aF0.025093650946114626
aF0.021727296395351536
aF0.022868020916166597
aF0.021953793831359158
aF0.024193937057207515
aF0.023070181671759105
aF0.027898296046731396
aF0.021781481046825438
aF0.023735735735735678
aF0.02286093720356663
aF0.02332537327833653
aF0.020548588605514017
aF0.025295797633618868
aF0.020863957513395558
aF0.027256868730920123
aF0.022671970051473974
aF0.023138329560347854
aF0.0219730729117284
aF0.0253805881927187
aF0.023354464685504152
aF0.023424068767908254
aF0.02055118855952263
aF0.027387335168816047
aF0.022169456460409954
aF0.024553784480290098
aF0.021629909187404123
aF0.03084832904884311
aF0.028407352491232957
aF0.03138216070742015
aF0.02278528883426297
aF0.027054422589598098
aF0.023570288289980222
aF0.02321867029011413
aF0.02549183259806838
aF0.028928605838712713
aF0.019732535303469512
aF0.022836192849611754
aF0.02149238169711613
aF0.02412065120962902
aF0.024267150909133728
aF0.023150022626050863
aF0.022653645155950666
aF0.02508084800574913
aF0.026452649992908073
aF0.029931057676139156
aF0.02495911256488652
aF0.023013909241597946
aF0.022575014153613834
aF0.028648442345307883
aF0.022233785893372385
aF0.023300458330333732
aF0.023935856620681466
aF0.02676492474615323
aF0.024518056576482525
aF0.02471102101884692
aF0.02322278247283568
aF0.02972455089820352
aF0.02252230871463826
aF0.021358896737302336
aF0.0216791950420623
aF0.028364743955834694
aF0.02535552337313923
aF0.022911798009974164
aF0.022103100573830442
aF0.027889960564450922
aF0.025304459081647097
aF0.021955559830704064
aF0.022831266744114315
aF0.02699681271109836
aF0.02376373952472515
aF0.03385391405567942
aF0.024145107127654483
aF0.024054654468146038
aF0.022352553231580877
aF0.03118619348565865
aF0.021448738937528123
aF0.027801038352034766
aF0.020155662274372453
aF0.029383724057007284
aF0.02025256697745776
aF0.0295704103255634
aF0.02200990799716909
aF0.0383183977278291
aF0.020841655114076877
aF0.031585763622409745
aF0.022797755734949403
aF0.03540509736401767
aF0.019381394801834602
aF0.022933168903856133
aF0.02250414986957547
aF0.02871662695132026
aF0.020654166079232997
aF0.0258066064912617
aF0.020238123417047317
aF0.03278410878033429
aF0.023503818779409272
aF0.022912788199914023
aF0.027819044424210407
aF0.03177674058668464
aF0.02289465634485512
aF0.022823956789828348
aF0.019791419767717422
aF0.026005297375391218
aF0.023811764705882296
aF0.019390979603562147
aF0.02087687630628914
aF0.026558669422679357
aF0.023031221151797704
aF0.019958459665289897
aF0.02002313994946986
aF0.028968043572564637
aF0.02074884466660374
aF0.02117353667601846
aF0.021958821307140105
aF0.02664614496657201
aF0.01942527649116169
aF0.02422087529232085
aF0.02080342644670882
aF0.030488099261333387
aF0.02130614935492979
aF0.022518546790391395
aF0.020742873324523264
aF0.027359124508015677
aF0.022185955202346265
aF0.02192961569598547
aF0.02193706656602344
aF0.03170460586728521
aF0.022873345935727735
aF0.02016177137267061
aF0.022553543959294705
aF0.02518383236410817
aF0.02384715178676725
aF0.021445288245689396
aF0.023881800502774688
aF0.025337999808226996
aF0.021878839429165433
aF0.020480981945336423
aF0.023824763530332065
aF0.025729070948396705
aF0.02233168352002268
aF0.02190979160719378
aF0.023717385627121806
aF0.02324686876457431
aF0.02478303024570193
aF0.021839573211393678
aF0.023337195280542823
aF0.02233119396168356
aF0.022928906119924784
aF0.020645869632670545
aF0.021563470059951136
aF0.025338818973862472
aF0.025362489963632866
aF0.023831764508634466
aF0.030050679292869135
aF0.024484999640279084
aF0.02283730486739243
asVreal_frac
p24
(lp25
F0.05881740036467815
aF0.0301878826261346
aF0.053961063164836266
aF0.028715949207018206
aF0.06129305259918431
aF0.03350695794138217
aF0.057951898521033704
aF0.031066396298029347
aF0.059807643634522754
aF0.03428147161985705
aF0.059253760070389454
aF0.029767394200225356
aF0.05769522749126965
aF0.03508591418870245
aF0.059870505579280725
aF0.030313892160376797
aF0.05638440689987067
aF0.03681440586141056
aF0.058512990602542676
aF0.03211832256741507
aF0.054214733859542466
aF0.037804059288333317
aF0.05747794097308644
aF0.032907045285629995
aF0.05276369168356984
aF0.037360992852903896
aF0.056595933292703036
aF0.03336070622048852
aF0.049835567923096256
aF0.03657031169632744
aF0.053526901978167965
aF0.03342146469183963
aF0.04885376691577446
aF0.035880194030233716
aF0.05295406027336479
aF0.0332535454147684
aF0.049327015173665244
aF0.03660344563161383
aF0.05139837893164388
aF0.032713773813513355
aF0.050188584360070274
aF0.03835455635797576
aF0.04931167400881043
aF0.03236845490801484
aF0.05295535579771995
aF0.04053916322682556
aF0.05000683900971126
aF0.0335957195040386
aF0.055251957994409184
aF0.04292697830736317
aF0.05199136210808285
aF0.03494202041498461
aF0.056912006059840786
aF0.04307449623447984
aF0.05334172642180728
aF0.036881035545510484
aF0.058685149115928315
aF0.04117467426710087
aF0.055933918656491735
aF0.03745327940197625
aF0.06068367398691469
aF0.038894965785657855
aF0.059744032448134886
aF0.03750797906293875
aF0.061419956418182584
aF0.03795278795278786
aF0.0637860082304525
aF0.03600275180268546
aF0.060407956417078267
aF0.03586632338321131
aF0.06589051275699759
aF0.03373157092018293
aF0.059040870555485105
aF0.035788130185066915
aF0.06479052169350143
aF0.03342745936045172
aF0.0569679492044217
aF0.03610034672649389
aF0.06329568363204534
aF0.03367474013266568
aF0.05534635699663864
aF0.03548805617034258
aF0.060552583687199964
aF0.032000810147092246
aF0.05342004706835019
aF0.03596755267588379
aF0.058441558441558274
aF0.030498281786941504
aF0.05146426584391267
aF0.03510692464358443
aF0.05779610817394176
aF0.030104382028137686
aF0.049341190157052045
aF0.03593502579557635
aF0.055337063092006714
aF0.030320611457255932
aF0.04775607047301719
aF0.03700015320974404
aF0.052041522491349336
aF0.03102848061350614
aF0.04483617069429415
aF0.037130607870157616
aF0.04928176795580096
aF0.032083533486713944
aF0.04437177713495147
aF0.038281669264777184
aF0.04959659593280269
aF0.03269424823410688
aF0.04339265429761443
aF0.03875512295081957
aF0.04816044260027649
aF0.03404900227330125
aF0.042056900512457925
aF0.04091060749942242
aF0.046171700146445116
aF0.03414177688981049
aF0.04175824175824165
aF0.04277512942744363
aF0.045804900958642855
aF0.03404082873208036
aF0.04168775944112574
aF0.04537669044149591
aF0.04674009298206761
aF0.0359776026755174
aF0.04269668618949813
aF0.049360053031461806
aF0.04784556667957285
aF0.03785168835781506
aF0.043548795944233096
aF0.05261952039101865
aF0.04875964718853349
aF0.038918809064119396
aF0.04513906479558223
aF0.054587039390088805
aF0.05061518180819496
aF0.040500736377024935
aF0.046390316781038596
aF0.055627491304237296
aF0.05116279069767428
aF0.04186660573285591
aF0.04689123767520836
aF0.05463291139240492
aF0.05117992088391747
aF0.04235797843871845
aF0.04647565922920881
aF0.05117722764781575
aF0.05114796960535977
aF0.040972098128813104
aF0.04689875342049243
aF0.04833031583182446
aF0.051109781307800965
aF0.04093732354601909
aF0.0468805523123
aF0.046818878255845964
aF0.05066354835200682
aF0.039686012096255205
aF0.04680829436877402
aF0.045793075684379916
aF0.04988859301124925
aF0.038968732292793386
aF0.04760814249363855
aF0.04466357308584675
aF0.05005558719054191
aF0.0390495867768594
aF0.04943207864310077
aF0.046612096407457816
aF0.048523491746143115
aF0.03821606676830046
aF0.050826730529158363
aF0.04928401558467831
aF0.046566119041206444
aF0.038675318631886356
aF0.05103157037828474
aF0.05066754490411154
aF0.04404966673833572
aF0.038824138824138724
aF0.052133062468257864
aF0.0503260704716646
aF0.04214600580582722
aF0.03802824213477303
aF0.05275718492941999
aF0.04999999999999987
aF0.042532624456258945
aF0.03739266198282582
aF0.05246410752469185
aF0.05017169982830004
aF0.043140522524459615
aF0.036297782525992035
aF0.05255641973734527
aF0.04795230034612554
aF0.044040893193435446
aF0.035812097342131935
aF0.05385341462792404
aF0.0430164496921989
aF0.04569250181212906
aF0.03569657907783828
aF0.055293186633650585
aF0.04177822682495569
aF0.04611422593019812
aF0.03543358487609986
aF0.05550312460145375
aF0.03978464727144038
aF0.045811764074779264
aF0.037209180875786514
aF0.054786135128930914
aF0.03761184975481513
aF0.04597515728343268
aF0.038073645532014595
aF0.052950615082902344
aF0.03616892301475036
aF0.04928797254573446
aF0.03758148715684482
aF0.05088107407124863
aF0.03622656783627201
aF0.052370362334562666
aF0.0364641457527704
aF0.04998856968680929
aF0.03469888043670541
aF0.0539637706743433
aF0.03626419202654353
aF0.04988075303191746
aF0.03497264991896263
aF0.054990093097738904
aF0.03788232850392055
aF0.05153932127616325
aF0.036087561685435816
aF0.056130627326323644
aF0.03849550626006536
aF0.052135231316725844
aF0.03827460510328058
aF0.05616722079904056
aF0.03953330902651169
aF0.05110416507839686
aF0.038610625522535434
aF0.05407032425776425
aF0.03919215113244954
aF0.04964809309652654
aF0.03984285895323776
aF0.04950197022767062
aF0.03866537869096405
aF0.04800856203654143
aF0.04054738976178398
aF0.04705044640411884
aF0.037566151359524395
aF0.04655612244897947
aF0.04083440925546178
aF0.044479158102441706
aF0.035982632659958824
aF0.04537682158078747
aF0.040789473684210424
aF0.04434730012097205
aF0.03520394907768242
aF0.045422067979993756
aF0.04224495998379079
aF0.047714924014672894
aF0.034905146238289164
aF0.04557654456685656
aF0.04202659911336278
aF0.051807029177718684
aF0.03621985999481453
aF0.04441099943880403
aF0.04147267206477722
aF0.053930227423272095
aF0.03559862165453264
aF0.043061713295622375
aF0.040308899860741765
aF0.053416627679775286
aF0.033953969485389104
aF0.04043249828675844
aF0.037385772706618775
aF0.052791711207959724
aF0.03424710724547634
aF0.0398176291793312
aF0.03828101342485102
aF0.051895171207607865
aF0.035958726537384536
aF0.04310016986537524
aF0.03785798846376656
aF0.050677151594582644
aF0.03753539236823639
aF0.044624078250513025
aF0.03623133670720337
aF0.050950008213327354
aF0.03957330558085068
aF0.04519028155068662
aF0.03635584893300739
aF0.0504254562368326
aF0.04116910882828377
aF0.04235979237878201
aF0.03729386252458511
aF0.05011227339941932
aF0.04231532755197983
aF0.04041681420405675
aF0.037812476351436475
aF0.051256061145659115
aF0.042687230427395
aF0.0403054516031151
aF0.03994135193892502
aF0.05144078010299098
aF0.04251308900523549
aF0.03986601365239668
aF0.0421236606803616
aF0.0505478291756604
aF0.04219298705382871
aF0.04167830037820128
aF0.04378764390454638
aF0.05030383955091683
aF0.041120365747917595
aF0.04262028277896439
aF0.04438948522475193
aF0.050134947247893864
aF0.03880659843721213
aF0.043258226946747254
aF0.043656172476407136
aF0.052459641194566045
aF0.03852441725556366
aF0.045273479393289295
aF0.0433234269317482
aF0.05509122692013532
aF0.03852369975889559
aF0.04433358915323601
aF0.04416557600020519
aF0.05435226808336724
aF0.04131680661068895
aF0.04256462759150232
aF0.04400575776269781
aF0.05259293503385622
aF0.04237491661107393
aF0.04227625611724604
aF0.0419623572971304
aF0.050939864919846874
aF0.04304839269967655
aF0.042104724631008
aF0.04315954628462655
aF0.05143647757792775
aF0.043037704655751574
aF0.042218924312982846
aF0.04649125067649396
aF0.050774060842264664
aF0.043103448275861954
aF0.0431164707990884
aF0.04932862555088773
aF0.050661031642826045
aF0.044084762006176004
aF0.04263961984568994
aF0.05224918843716171
aF0.05055693738509773
aF0.04557941058807829
aF0.04259557189918015
aF0.053305508321739435
aF0.05185605753372793
aF0.04557819500746734
aF0.04342159067675311
aF0.05342783505154625
aF0.05236308672298833
aF0.045188957384079215
aF0.04310432829726408
aF0.052868884136758165
aF0.051068081773744764
aF0.04451253931134574
aF0.04296375811480845
aF0.0541553573736589
aF0.05004181391459157
aF0.045355441307097934
aF0.04151020512427506
aF0.05358987603305771
aF0.04832312548903205
aF0.04561261625555992
aF0.04143597070905508
aF0.051935666786947644
aF0.046720138270004465
aF0.045771036865115654
aF0.04070449100270163
aF0.05266275236917992
aF0.04563663923776514
aF0.047443574389682046
aF0.03919372900335936
aF0.05384635155627508
aF0.04503059143439824
aF0.047880285706526034
aF0.04036195393778267
aF0.055230919062996424
aF0.045230643624982865
aF0.04827849412534403
aF0.04084654463761445
aF0.05559252623496274
aF0.046948612510552414
aF0.04753184278139166
aF0.04125947283815151
aF0.054322818139986566
aF0.04706521739130422
aF0.044527458144734564
aF0.04165496105222821
aF0.05385146716467534
aF0.0446360776656903
aF0.0437617657490518
aF0.04212379445833535
aF0.05351853743233568
aF0.042139164794716924
aF0.04513822558196642
aF0.042457529697279235
aF0.05456078060742278
aF0.03943768791137344
aF0.04675778159696634
aF0.04232358793816
aF0.053486711217670624
aF0.03964997146506498
aF0.048287325939449954
aF0.04219527760051042
aF0.05366214801766599
aF0.04109626323381313
aF0.04877584330794328
aF0.04383968079392269
aF0.05210221325913243
aF0.04273923347225615
aF0.049707840739230735
aF0.04502636563763875
aF0.051094519782619606
aF0.04775196344033043
aF0.049839578008591956
aF0.0466422215954254
aF0.051838151460639866
aF0.05137775826106034
aF0.050255074351459754
aF0.04858974358974346
aF0.05229369392139504
aF0.0541869215347009
aF0.0505809240745743
aF0.05043870901534186
aF0.05093070703508715
aF0.055981531865776084
aF0.05092167144169941
aF0.05287598132279734
aF0.050006282196255684
aF0.056815685413005114
aF0.04879630380157237
aF0.05251439539347395
aF0.050372195956141105
aF0.05695036436133629
aF0.04833567491624325
aF0.051822090285597165
aF0.04992333023302569
aF0.05467139440916947
aF0.04788945674805968
aF0.051357281355240196
aF0.049812385101614114
aF0.05298741274116404
aF0.047313574231966304
aF0.04896474538332388
aF0.05138878377355621
aF0.050528564386262666
aF0.047227201129759255
aF0.04824327414069037
aF0.05143289988637785
aF0.04906955834672901
aF0.04695997389601901
aF0.047055537215266896
aF0.05367074527252489
aF0.04766296828798511
aF0.048803097224494114
aF0.04561252188031141
aF0.05493086157118965
aF0.0478064936475186
aF0.05052269563555954
aF0.044838611449451775
aF0.05525982256020265
aF0.04694797436732907
aF0.05015238924567309
aF0.045388884665095296
aF0.05524512654547279
aF0.046383498439408206
aF0.051236077152947423
aF0.046443864494387595
aF0.05349981082103656
aF0.04687033265444658
aF0.05089486977539977
aF0.04697867147977719
aF0.053491827637444145
aF0.0488580750407829
aF0.05082171719911034
aF0.0501108195551931
aF0.05192385173247368
aF0.05102844876776336
aF0.050449374134513426
aF0.053748593638130164
aF0.050686244827934074
aF0.05163095141095616
aF0.049866985178348304
aF0.05570074301819099
aF0.051384894808536266
aF0.05345024159834938
aF0.04781806339557086
aF0.055228088159917844
aF0.05010585744530686
aF0.05438477226376599
aF0.047769314472252314
aF0.0529711462147007
aF0.04950944538323779
aF0.054357579877634114
aF0.049141923181694226
aF0.04971275373420132
aF0.05019032493886901
aF0.05384720141631471
aF0.04870023928649105
aF0.04757900101936787
aF0.04983983655762088
aF0.051658806531635765
aF0.050133289810129884
aF0.047183009029632336
aF0.049772612430520335
aF0.0504588405086729
aF0.05190556676298988
aF0.04639044229791549
aF0.05069449696236343
aF0.05137564696268033
aF0.05355922940292375
aF0.048227671198068735
aF0.0524680442580709
aF0.05318974471109152
aF0.051793918179829215
aF0.04818725353008511
aF0.05298063536261219
aF0.053601706503308935
aF0.05022406820417518
aF0.04686424912718828
aF0.05791300382539949
aF0.05368077102611259
aF0.048316571928290204
aF0.04561950521365762
aF0.05961138450611318
aF0.055301695661748355
aF0.045709133630228556
aF0.04425253583382292
aF0.06078007877016882
aF0.05458455091801275
aF0.04554022674498007
aF0.04204603580562649
aF0.060039720934969544
aF0.05517812758906364
aF0.045147403411258114
aF0.04163144006353588
aF0.060688174242036756
aF0.05503344574050512
aF0.047739513628202904
aF0.046877809457758476
aF0.06073747145313166
aF0.05475280961080647
aF0.0492969216569845
aF0.05263428689030651
aF0.058477730714927324
aF0.0541145890941266
aF0.0495921519742011
aF0.05670645616737246
aF0.05447231545773641
aF0.05561251350827106
aF0.048612424676412434
aF0.05920985120574638
aF0.05321649379183472
aF0.05589165787866999
aF0.04936838695746046
aF0.0584545268332649
aF0.05237015716141508
aF0.054511694934042634
aF0.04932614555256051
aF0.05633010155790321
aF0.052394752898108465
aF0.05023400072000207
aF0.047143202514304004
aF0.05562087827820649
aF0.05330690855502184
aF0.050634316964161645
aF0.04355293170535343
aF0.054233479726279094
aF0.05530152923842896
aF0.05040501553484229
aF0.04283675722247639
aF0.052763561924257796
aF0.05634983112826619
aF0.0524242760457116
aF0.04351689780530485
aF0.04885028104241173
aF0.055421441821462004
aF0.05483014274648651
aF0.04366258033158707
aF0.04609367010941802
aF0.05497495359422266
aF0.0578772802653398
aF0.043909424989191405
aF0.043143573218761076
aF0.05409877800407318
aF0.06100127374425413
aF0.044235816130515825
aF0.041875319366377
aF0.056309345009291405
aF0.061929469215615374
aF0.04485337958696936
aF0.04293536666496074
aF0.05676245648804518
aF0.062039636434388465
aF0.045562706181385415
aF0.044851774102708394
aF0.055613477431659106
aF0.06475459952198304
aF0.04529220779220767
aF0.04707236001022744
aF0.05239908606245226
aF0.06312633595203047
aF0.04450339730922269
aF0.04967878989531865
aF0.05063515809224359
aF0.06343231562804945
aF0.0431029817630823
aF0.05160895507165064
aF0.047662416514875405
aF0.06646778375665635
aF0.04108221838584365
aF0.052871166268246644
aF0.04798241402834968
aF0.06880031196902574
aF0.04143698405442458
aF0.05165273507965128
aF0.046750629722921794
aF0.07002754361071677
aF0.04153114163597742
aF0.04820041626478489
aF0.0462949007786987
aF0.06980045086415611
aF0.041986165478041605
aF0.045583900802927006
aF0.04600411378116679
aF0.06756419153365699
aF0.04246648793565672
aF0.04458517727249594
aF0.046332822432724324
aF0.06360922209321594
aF0.042732752846617435
aF0.04167197006338609
aF0.0474116225198911
aF0.05909630406580347
aF0.044517325734562636
aF0.03903827580948498
aF0.04665978394983998
aF0.05659647377438773
aF0.04465442764578821
aF0.03686121195196863
aF0.0462755371942463
aF0.05394282557657767
aF0.04410851666891606
aF0.035905639775526174
aF0.048179384879551417
aF0.05241846017306397
aF0.0434841286979053
aF0.03709919393800687
aF0.04877740410144878
aF0.05325938518993324
aF0.04227594021475195
aF0.04028079132099543
aF0.05044276978508525
aF0.055798687089715374
aF0.0416217672413792
aF0.04154584413251548
aF0.05056938323185476
aF0.05811329271044894
aF0.04183513936061232
aF0.04333161688980421
aF0.05018468984842682
aF0.059329466685528194
aF0.04119930974978418
aF0.04558007484836741
aF0.04964177353968524
aF0.05918580670678289
aF0.043030794165315925
aF0.04769417789617968
aF0.04947185793743927
aF0.05938302616352894
aF0.04575251923285284
aF0.051492692028609795
aF0.049573261102877166
aF0.0610727861466984
aF0.046914383283193625
aF0.05487264961716742
aF0.04936854190585521
aF0.064173083975064
aF0.04698948279125085
aF0.05661462827854905
aF0.04963305802030314
aF0.06911648401310566
aF0.048077964266377775
aF0.057837384744341844
aF0.04977085946900829
aF0.07211687907988788
aF0.04838753424285972
aF0.05623446290723523
aF0.050689001588033265
aF0.07269598578239139
aF0.047646227440747854
aF0.05331558756752511
aF0.051843878936982515
aF0.07405114931210062
aF0.047749830047586546
aF0.05189146882337581
aF0.05354947756607239
aF0.07447557370125278
aF0.0494952251023191
aF0.051692660789734356
aF0.054749003169409935
aF0.07608143928712403
aF0.050268663229959216
aF0.052011673962893336
aF0.05534555856362043
aF0.07495419309372776
aF0.0493194031479308
aF0.05413060991138469
aF0.05545055169595409
aF0.07149911119889373
aF0.05169729906873842
aF0.054689324166558424
aF0.05387721719572649
aF0.06724371264238167
aF0.053811046432182624
aF0.052956111715632796
aF0.05141033822590925
aF0.06441700496165971
aF0.05426632368233798
aF0.049851171217807556
aF0.04838915064306622
aF0.059677510289225744
aF0.05391566265060226
aF0.04852834490620777
aF0.046239824431571576
aF0.05727977448907665
aF0.05382172579938662
aF0.04561703450419634
aF0.045222669999489755
aF0.05505336374644461
aF0.054632413227657675
aF0.042804581022956825
aF0.04528676526741836
aF0.05396485091257848
aF0.055648135500614516
aF0.04047995438878368
aF0.04512309763967569
aF0.052630094485967976
aF0.05573734729493876
aF0.04085759469058657
aF0.04552502478330483
aF0.05238698774820433
aF0.05408049569258348
aF0.0420013473596931
aF0.04693690947881731
aF0.051356289529163594
aF0.053935504833075965
aF0.0424815438414712
aF0.050199223409384944
aF0.050719748088168995
aF0.0514523269625309
aF0.04356921487603294
aF0.054786532806003305
aF0.05118464741966331
aF0.05280741459208952
aF0.047120418848167415
aF0.06012223071046585
aF0.050935170862044576
aF0.05418838974580606
aF0.0491025108943763
aF0.061500114454307135
aF0.0502528089887639
aF0.05212062045775016
aF0.04860084545761029
aF0.061707695043568676
aF0.04894947964879786
aF0.049175876395036115
aF0.04880203731614768
aF0.058036507654421136
aF0.047358987285049996
aF0.04727490083138606
aF0.04856592577169317
aF0.05565301400859315
aF0.04619824060066104
aF0.04513851167843551
aF0.04751872659176017
aF0.054394794367342646
aF0.04620369853064404
aF0.043421765024363713
aF0.04640504153537656
aF0.0548439564907999
aF0.04663111160751669
aF0.04300755939524826
aF0.04792931793896101
aF0.05711310884250074
aF0.046881107946612925
aF0.04603883181842616
aF0.050405909838419034
aF0.057636081661708846
aF0.04905544548929863
aF0.04696688955127676
aF0.052513500117392184
aF0.05520756726599534
aF0.04924073246985247
aF0.04638154373193436
aF0.05343212711002099
aF0.05481256332320148
aF0.051800167457437755
aF0.046717508399551896
aF0.0537491185457963
aF0.054755262490489336
aF0.052665257066547816
aF0.045472751061386756
aF0.053688288571278844
aF0.05410405210207533
aF0.05347905890205224
aF0.04363568595085316
aF0.05471594331962583
aF0.05194147724396281
aF0.05228522241350571
aF0.040688741721854195
aF0.05599790466212662
aF0.0519352140521632
aF0.05031900138696241
aF0.03984694550732276
aF0.05840314136125639
aF0.053213106426212714
aF0.047883106440790614
aF0.04065255266353402
aF0.060823366222617546
aF0.0517237005656882
aF0.04665892244717323
aF0.041050081626204535
aF0.06399916204043138
aF0.05190917163516414
aF0.041975580850535946
aF0.04002312564055386
aF0.0664970358323276
aF0.05172151513614915
aF0.03910937413992393
aF0.04019558873787418
aF0.06669637941430913
aF0.052254124325283056
aF0.039038625664179614
aF0.04058092591621653
aF0.06502553358648666
aF0.05251569143551313
aF0.03812672176308529
aF0.04249061162320428
aF0.06367503413506967
aF0.05256098795424625
aF0.037725442612100715
aF0.043006219036576254
aF0.060953878406708434
aF0.05254498974917094
aF0.03823959800104906
aF0.043762057028091106
aF0.0597622109655913
aF0.05242221546569359
aF0.038983332410432364
aF0.045784729586426175
aF0.05884516366311128
aF0.0530251184954248
aF0.04153965526797084
aF0.04724535128089157
aF0.056827709075665325
aF0.05333164428679996
aF0.04061531651173074
aF0.0469811170000265
aF0.053610675039246325
aF0.05335968379446627
aF0.03861366968163074
aF0.04745636043345954
aF0.05224853923205328
aF0.05260226812474673
aF0.0388029980363414
aF0.04557225618709441
aF0.05266312278507387
aF0.051041851279843904
aF0.037502078829203284
aF0.04250080291189368
aF0.05544858451290576
aF0.04998225781923239
aF0.03502884402041259
aF0.04020800943547944
aF0.05815407052450633
aF0.048345797946507674
aF0.033023307313292276
aF0.03923928743379864
aF0.06000625065110933
aF0.046727314193041464
aF0.03253652058432926
aF0.039184785512046474
aF0.060052151238591756
aF0.04533711564763678
aF0.03270833910322089
aF0.03838480568190876
aF0.05766371958375699
aF0.043048622900144315
aF0.03618931500775871
aF0.039321674615792154
aF0.053905045595881856
aF0.04264739560803063
aF0.0390709249274159
aF0.03995763272871696
aF0.051584802686817664
aF0.0435416613369489
aF0.03997131113624441
aF0.03922863558314611
aF0.04991213575681262
aF0.04362510554461008
aF0.04130861263850117
aF0.0367904418537329
aF0.05094389092815928
aF0.04451197711834096
aF0.04169194286659669
aF0.034297401473634435
aF0.05464452244983482
aF0.04737110770801417
aF0.043385863715397446
aF0.032875996341303976
aF0.05765817498433896
aF0.05006372673973986
aF0.0442877602732179
aF0.031140967557152444
aF0.06023091558289228
aF0.05185109689912591
aF0.045093130107023836
aF0.030133291841709375
aF0.06143158223401748
aF0.05289820023928912
aF0.04602188376312738
aF0.029398847813169985
aF0.06028830141548693
aF0.052558045013463256
aF0.044085755853852576
aF0.03021864686468639
aF0.05986557599124665
aF0.050458483205836034
aF0.04184834773070056
aF0.031996906020368615
aF0.05849872375892051
aF0.0495374816761865
aF0.03934919332786426
aF0.033141210374639685
aF0.05754459054810556
aF0.049185297461159405
aF0.038155846284106634
aF0.032258893687024386
aF0.054874246518395196
aF0.04762264721445297
aF0.03560523446019619
aF0.03132883694588881
aF0.05260823047415241
aF0.045082895167173904
aF0.0377466790575629
aF0.03234473493851392
aF0.05084345567594498
aF0.04259589092642289
aF0.04135647033063269
aF0.03427001244296963
aF0.049466435367712634
aF0.04223798661419286
aF0.04615934458679263
aF0.03573102765769041
aF0.047455223488628476
aF0.04276059593497967
aF0.0491107128084929
aF0.03898980948161266
aF0.04727234633213721
aF0.043513295729250494
aF0.05261122925239566
aF0.04163184287505212
aF0.04724636163752474
aF0.044713082623099955
aF0.05584937006783869
aF0.044279191128506076
aF0.04855846165953973
aF0.045696202531645455
aF0.05528126040164191
aF0.044448490207807625
aF0.04797057664521201
aF0.0478965719084823
aF0.05514298381733525
aF0.045267917467906954
aF0.04857278031856161
aF0.04950545528703974
aF0.05448096214598444
aF0.04362120741431075
aF0.04944997105110782
aF0.05003185930929004
aF0.053200355595065967
aF0.04139371743952122
aF0.04813721873847276
aF0.050446314715633635
aF0.05123223801065705
aF0.03913647591601472
aF0.047587574355584805
aF0.05017089221037583
aF0.0484861902916919
aF0.03590388018362261
aF0.04621948957146252
aF0.05224452275164687
aF0.04716355191861095
aF0.03255051604476648
aF0.046137481717856546
aF0.05382552050070238
aF0.04428583239176552
aF0.030510123115513498
aF0.04782075873827779
aF0.05368544720845877
aF0.04093278463648822
aF0.029584283189467406
aF0.04822003887424435
aF0.05236736150043307
aF0.03819463417299591
aF0.02935516153036866
aF0.04843365764995176
aF0.051740357478833356
aF0.03499129299085754
aF0.029923648422838556
aF0.04796406705344478
aF0.05102870205740398
aF0.032416928238986814
aF0.031567311894295694
aF0.04921676261882434
aF0.0507283154849514
aF0.03245682782477088
aF0.031191339453315765
aF0.051549991941116285
aF0.05077887922314371
aF0.03172376584839484
aF0.030098264256054393
aF0.05332796564680608
aF0.0513047436027105
aF0.03210342041475887
aF0.030088220836674954
aF0.05251312828207037
aF0.05176630777377127
aF0.032378848692185346
aF0.02991917935965177
aF0.05192302545298811
aF0.05338069326884307
aF0.03352060428483096
aF0.03077640475635338
aF0.05210565795113573
aF0.05186263681092466
aF0.03395444019602554
aF0.03296960249415424
aF0.051152815013404684
aF0.05076853752565951
aF0.03448925237416256
aF0.03455717926049187
aF0.052481812568789955
aF0.04999999999999987
aF0.03726841878500636
aF0.036536562548723985
aF0.05278694683734521
aF0.04860571743542192
aF0.03948077130238059
aF0.03592270781999731
aF0.05280953147641267
aF0.04810780967677161
aF0.040687525177923886
aF0.034732646617319646
aF0.05261884926500214
aF0.048053941177950414
aF0.04265262818618881
aF0.03274617831923635
aF0.051937942881683345
aF0.04816149600544356
aF0.042423104770587965
aF0.03124919227687448
aF0.05007110848740159
aF0.04591090257807364
aF0.040030009109908254
aF0.03208845588803827
aF0.045541000294676934
aF0.04616124784766523
aF0.039724263719757416
aF0.0336537222666013
aF0.04337478272496311
aF0.04652402345237177
aF0.03891363855939016
aF0.03340028842191998
aF0.04245358728799946
aF0.04548914146539464
aF0.03786048010310929
aF0.033460017461866276
aF0.04241208717743002
aF0.045581371753246634
aF0.03809165636920422
aF0.03371160693700839
aF0.042477970913570876
aF0.04819277108433723
aF0.03917503567486056
aF0.03287825331083491
aF0.0425697008615614
aF0.04870229007633575
aF0.03955274147918621
aF0.030991894034316025
aF0.04178785857238147
aF0.04860458620076678
aF0.03865568902685912
aF0.029802678662713345
aF0.04157444198511949
aF0.04739781670474728
aF0.03725013506212848
aF0.02859920188273808
aF0.040585584384416305
aF0.04673730324486769
aF0.03580604159342284
aF0.028092479622699472
aF0.04195766913685546
aF0.04339095068632424
aF0.03399924205511333
aF0.02883331621649371
aF0.04282370464943067
aF0.039131429733784126
aF0.03259695365669214
aF0.028014366341713625
aF0.044518096248177
aF0.03661199410958199
aF0.03374547810593371
aF0.02771025765678165
aF0.04429693491656297
aF0.03564271036809651
aF0.035729683121362266
aF0.02860356330359646
aF0.044393447811980576
aF0.036671403918383826
aF0.03597606985016698
aF0.027351431417115643
aF0.043301901701522295
aF0.04057248900526211
aF0.03552917796814986
aF0.026310422190495546
aF0.04162945842307075
aF0.04216943985774154
aF0.035870469240468876
aF0.025926588163171407
aF0.04057060594163057
aF0.04311504964070781
aF0.03549424055719251
aF0.026725659190301967
aF0.04095732200119915
aF0.042789424320008
aF0.035298847493969346
aF0.02724858266510029
aF0.04198115662901451
aF0.04238340131228931
aF0.03653825517759406
aF0.0268071213589756
aF0.04320054228803826
aF0.04152853346830307
aF0.03657133684689254
aF0.025286829988043383
aF0.04534294520190136
aF0.04063456721402717
aF0.03801794105083287
aF0.02541812820903862
aF0.04483354271356772
aF0.04032992612083787
aF0.03953506971288411
aF0.02672900045734024
aF0.043184251063940776
aF0.03948934876769918
aF0.03878160674277169
aF0.028269720101781096
aF0.04153313009718845
aF0.04055873015873005
aF0.03678572382657004
aF0.029047230439661252
aF0.03976653696498044
aF0.04334389047813638
aF0.03560814971486698
aF0.030315413101774918
aF0.038863513199659264
aF0.04509263512478935
aF0.03537167050752978
aF0.033548981000843754
aF0.038554402548032364
aF0.04902737660080251
aF0.03443758188283726
aF0.037383656829311974
aF0.03849702686077497
aF0.052083599805581714
aF0.03522760606949509
aF0.040638494756323154
aF0.03746994731188286
aF0.054700286415711806
aF0.036057117026085474
aF0.04297116374871256
aF0.03495110929561634
aF0.0547455506472945
aF0.036725710649130154
aF0.04444559024465687
aF0.033842375872918336
aF0.056099982182401156
aF0.037618302802152545
aF0.04462396118308975
aF0.03252845278375876
aF0.05455516557301985
aF0.03737229368482336
aF0.04314353621990275
aF0.03266008839551847
aF0.05170313213868711
aF0.037781647406469214
aF0.03977786387705014
aF0.03384765977177292
aF0.04854982678837826
aF0.03915201436189862
aF0.035044740710178095
aF0.0361159225459527
aF0.044167610419025935
aF0.04095248140920826
aF0.03156653075877623
aF0.037573750129386095
aF0.040195464227540306
aF0.04273324018664476
aF0.028835092921598124
aF0.039261328367473515
aF0.03761504601840727
aF0.04246636653239596
aF0.025425675848160658
aF0.04023702323655737
aF0.03700185009250453
aF0.04292716348687666
aF0.022720333808263733
aF0.039230888509846386
aF0.036874078148046205
aF0.044315484041149975
aF0.021942857142857087
aF0.03851511711897627
aF0.03722766340195873
aF0.04457185130386524
aF0.023415452673327678
aF0.03538256273413035
aF0.039367909644136036
aF0.04340245674283438
aF0.024659345129143723
aF0.03284353880810968
aF0.040106082213715526
aF0.040905134899912855
aF0.024676642150646654
aF0.032372720996241
aF0.042270440723777954
aF0.03905631498390236
aF0.02581477080225525
aF0.03096813756803017
aF0.044019808914011194
aF0.03846052109509314
aF0.02606802996558001
aF0.029730764323082734
aF0.04690511350837222
aF0.03808236603593566
aF0.026544865630851695
aF0.029341347868167618
aF0.04702061211742649
aF0.03886147806249658
aF0.026851758030195492
aF0.027794730953107444
aF0.045991918990372506
aF0.03997562784783289
aF0.027136595130108628
aF0.02879541303024145
aF0.045087483176312136
aF0.039897210374334274
aF0.026118647499493757
aF0.030413717880425056
aF0.04429526851666988
aF0.040324927896700336
aF0.02508670227577646
aF0.030457880091069995
aF0.04198092003396423
aF0.03903610641891882
aF0.024626922394790786
aF0.030692868719610942
aF0.03998400639744092
aF0.0390878619124283
aF0.024682598008159893
aF0.030329949238578603
aF0.039037835129040244
aF0.040336668254724366
aF0.025550861392901348
aF0.029035620757163486
aF0.03747806467786403
aF0.040383444111961334
aF0.02702634373261863
aF0.027213482001934658
aF0.0366074118710454
aF0.039667019027484034
aF0.02866515266212458
aF0.026260156389292105
aF0.03803526448362711
aF0.03915106775639325
aF0.029546599496221588
aF0.026597917092097134
aF0.03865368118282273
aF0.03776717708141149
aF0.030415672485244176
aF0.027433718906745758
aF0.038726790450928285
aF0.036402964995119795
aF0.03067269076305213
aF0.02676336891567489
aF0.03925134500265202
aF0.03351778656126473
aF0.02878761305840195
aF0.027569306172461255
aF0.04124207858048152
aF0.03358681875792133
aF0.02662292125826481
aF0.02732324004689803
aF0.041309094602142785
aF0.03208937485143799
aF0.02576945230522645
aF0.027230237756553477
aF0.041522403258655693
aF0.03206688538469671
aF0.02384112594225032
aF0.027993109388458153
aF0.04143035173834522
aF0.033923889727496534
aF0.023115880258737342
aF0.029074622333560996
aF0.04296556642216778
aF0.03730432475457671
aF0.025179765991030428
aF0.030765724703737386
aF0.04466386984549257
aF0.03852796598910578
aF0.02714034647250809
aF0.03213370869157211
aF0.04487277939896574
aF0.04012033438049081
aF0.029468562686529656
aF0.03531508593252696
aF0.04361729342542838
aF0.040500186636804665
aF0.030811623246492906
aF0.0362509247684889
aF0.041838538597524934
aF0.04174461489122871
aF0.03146371402089223
aF0.03808890820317483
aF0.03993847731350925
aF0.04306514640543856
aF0.03191462711991775
aF0.0375609631539973
aF0.03627671541057358
aF0.0443532158093857
aF0.031100896804976064
aF0.03823122984799621
aF0.03468547912992349
aF0.04651037456211251
aF0.029281698938163573
aF0.03863595603494648
aF0.032592592592592506
aF0.04518234786361662
aF0.02615357740011473
aF0.037672634271099646
aF0.032639207880365353
aF0.042485153037916744
aF0.024417009602194725
aF0.03661503008577637
aF0.03353107416554209
aF0.04124098356259877
aF0.02333574079147256
aF0.03547916079616765
aF0.03261145204645729
aF0.039592306251839064
aF0.022153861420526378
aF0.033897004272301585
aF0.032456206870402585
aF0.03950037365218309
aF0.022014989981942706
aF0.03252864157119468
aF0.033421817722158936
aF0.04046781756180722
aF0.022700915439089933
aF0.03362573099415196
aF0.03363744345320823
aF0.042237806821804155
aF0.02451161530313102
aF0.033579790511398554
aF0.03430479659987848
aF0.04298762678561934
aF0.025985221674876782
aF0.03552411575562692
aF0.03520040460235166
aF0.044198015599299506
aF0.027073633385066322
aF0.03581089784876971
aF0.036280549383962746
aF0.04670958131616735
aF0.027720865937646496
aF0.03595082854418463
aF0.03660929951690812
aF0.04746683714240038
aF0.02736103215600972
aF0.03682938120467045
aF0.03729017991757956
aF0.04657045478751718
aF0.02795539033457242
aF0.037424070832904256
aF0.03574207474711971
aF0.04534085466446691
aF0.03000772624180637
aF0.03698746493011753
aF0.03702681684770329
aF0.04476936188345572
aF0.03149153305485372
aF0.035767434700056354
aF0.036502015371904874
aF0.04518585578868877
aF0.03253948357984449
aF0.03683250712762942
aF0.0358573717948717
aF0.044487015751383446
aF0.03349306304724144
aF0.03722160856944685
aF0.03652348656116544
aF0.04518136368471427
aF0.03393409245154957
aF0.03704275748449034
aF0.03695964148140679
aF0.04310505195460936
aF0.03499747856782644
aF0.03602022912581268
aF0.03865614248127899
aF0.03988860893780655
aF0.0350381178371282
aF0.03708598973721029
aF0.03953913308293564
aF0.03784342845019614
aF0.03559420582956231
aF0.0374523086506267
aF0.039787326057645726
aF0.03780933707805618
aF0.035211624139327574
aF0.03803881830228379
aF0.041318939335936396
aF0.03840543192849365
aF0.0351775350381427
aF0.03644995589685042
aF0.04154727793696264
aF0.03847580687900779
aF0.03299511652033088
aF0.03675459756698561
aF0.04120051085568316
aF0.03908270438591851
aF0.030853314527503447
aF0.03752690681812278
aF0.04128580912015513
aF0.039135129440889
aF0.029642282958199283
aF0.03886164941499977
aF0.0419671628049715
aF0.03891122146028733
aF0.028379462494985887
aF0.03882108543235513
aF0.0439208245730987
aF0.0381225499223867
aF0.02741543777071173
aF0.038872287904378224
aF0.04390945761927997
aF0.03810323562600037
aF0.027922468195933015
aF0.039562157935887306
aF0.0456263984979809
aF0.03871475409836055
aF0.027846767517121927
aF0.03936206311503213
aF0.045121510757958706
aF0.03853509024703314
aF0.02646431707011156
aF0.04015885872547216
aF0.04347489550544392
aF0.03928580751259485
aF0.027366306803916576
aF0.04023845007451554
aF0.04265232052305067
aF0.037985243892900804
aF0.0283033108584079
aF0.04095750234937861
aF0.04210769705066272
aF0.03731052234731276
aF0.029748743718592888
aF0.04193178262230092
aF0.04267524115755616
aF0.03706497424959674
aF0.03167988753890945
aF0.042465503299684265
aF0.04106491237086899
aF0.03723473506053889
aF0.032852302672857235
aF0.04247829148087292
aF0.03876387176325514
aF0.03676241024039953
aF0.03408976804900082
aF0.042674661105317924
aF0.036405210286976755
aF0.0361147971795071
aF0.03625172716995343
aF0.04286720033375911
aF0.033855236139630304
aF0.03747781605595564
aF0.03657707131521264
aF0.045225342913128554
aF0.032925079430152625
aF0.0387138936086785
aF0.03715279528154449
aF0.04589150535662821
aF0.030909370042474717
aF0.03935300112362476
aF0.0376200101061141
aF0.04674098360655725
aF0.029654414957472272
aF0.04067079382493524
aF0.03659922709706742
aF0.048724141552031794
aF0.02944703870984197
aF0.04075611602830202
aF0.035243068694972034
aF0.04969547411529967
aF0.030632840244245084
aF0.0408003343433287
aF0.034743774127620836
aF0.0510987277888759
aF0.033455252321149875
aF0.041413482853044616
aF0.034208733822750234
aF0.05177383011056948
aF0.03577198246018915
aF0.040022914876441835
aF0.033664264476137594
aF0.05104256599429649
aF0.03748876620875584
aF0.04144889096913425
aF0.033246988406307285
aF0.05061834915156731
aF0.037147900836595193
aF0.042849713988559426
aF0.03198678480252282
aF0.04876069830135826
aF0.03825665859564155
aF0.04306282381733437
aF0.029430773054934054
aF0.04642267690131239
aF0.03915079930760605
aF0.04281321659370429
aF0.031017554299315603
aF0.04395950270156836
aF0.039075971193832944
aF0.04353386402192341
aF0.032510684552483925
aF0.042198516499357734
aF0.04031238942526401
aF0.04470372312532762
aF0.03184822942520819
aF0.0409889564786047
aF0.03980751303822015
aF0.04254313401087202
aF0.030993507288986814
aF0.0411170032130821
aF0.03912824389014855
aF0.03982382088456587
aF0.03043350621391518
aF0.0420174658787846
aF0.039009771330714114
aF0.038749310860833164
aF0.03035582822085882
aF0.04193261483729192
aF0.03739117306627739
aF0.038894736842105156
aF0.030479418410452815
aF0.041224447116641284
aF0.03595782692936756
aF0.038748489465664795
aF0.02850758729067419
aF0.04186947192128528
aF0.03420781246069866
aF0.03825552696528898
aF0.028150364140163243
aF0.044057027332160464
aF0.03243338449538275
aF0.038070732795967024
aF0.029071906969897622
aF0.04735873850197096
aF0.031545502685528325
aF0.039435657611265724
aF0.03030675147972584
aF0.04958047292143389
aF0.028113055723194457
aF0.04297285924679139
aF0.03134280735341032
aF0.051273264090261894
aF0.025853413654618407
aF0.045368570377764816
aF0.03226203063909304
aF0.053088215844464874
aF0.02628940905217777
aF0.04812385200734703
aF0.03262072867721215
aF0.05382233865205987
aF0.026220047672813884
aF0.0503908504275745
aF0.0320934703837905
aF0.053339677001559345
aF0.0266626421169131
aF0.051715525174181536
aF0.0320550784720165
aF0.05452380952380938
aF0.02564489364911745
aF0.05274256042594677
aF0.032206198827516186
aF0.05511623601597404
aF0.02735822890138423
aF0.05313283208020036
aF0.03164541290082944
aF0.055695330914483816
aF0.03244516488526409
aF0.053034704981247544
aF0.030810316263198162
aF0.05554230595966808
aF0.036889103721983264
aF0.0519239930132852
aF0.02902094447737594
aF0.05468089602704972
aF0.04140062318026245
aF0.05165366034931238
aF0.025656794253665193
aF0.05221339387060145
aF0.04280414481258784
aF0.054917530443123835
aF0.02399921555168773
aF0.048918776371307884
aF0.04246975599753936
aF0.0559455491792338
aF0.022940384379973013
aF0.045065451576368834
aF0.039666880204996695
aF0.0553437658286901
aF0.022711160004889323
aF0.04168092893441101
aF0.037718467719235295
aF0.053759718819895476
aF0.022620238647177906
aF0.041264822134387244
aF0.03532892890850181
aF0.051735603138715114
aF0.02375198340046375
aF0.040264043761834525
aF0.03451523404688565
aF0.050562544883900176
aF0.025204958032402826
aF0.042630969913738576
aF0.034087734003911616
aF0.05052524929344625
aF0.025260645035564588
aF0.04520814693963463
aF0.0368827474090631
aF0.05187396705230033
aF0.024716261209808674
aF0.04653303872053859
aF0.03793426754174787
aF0.050635271555283135
aF0.0253741843145816
aF0.044959735592686706
aF0.037799732167673045
aF0.05134545841310346
aF0.026286488841554857
aF0.04519937040923388
aF0.03731550397376047
aF0.05146025093503793
aF0.02690160249438033
aF0.044922028567684326
aF0.03515359221833018
aF0.05248912005094986
aF0.026568354889399185
aF0.0445899921404243
aF0.03242466995868177
aF0.05179917206241361
aF0.02659471493563056
aF0.043679786314714315
aF0.030104811213536985
aF0.0493355613909444
aF0.026006447078213174
aF0.04224284407267013
aF0.029159519725557387
aF0.05109430747111121
aF0.02634774162214661
aF0.04082750704372315
aF0.031238153006293044
aF0.05275670477615115
aF0.025309992706053913
aF0.04034845204872058
aF0.03590496191897969
aF0.05111230233181439
aF0.024565841319258586
aF0.03903442529034936
aF0.038824125696908164
aF0.05031057570787047
aF0.024260858985277953
aF0.03690333973926132
aF0.04097570870733799
aF0.04994752280739511
aF0.023513677811550095
aF0.03671033856531317
aF0.04275305288278442
aF0.05002284761981547
aF0.023511124064898418
aF0.03729833480313317
aF0.044119513619170804
aF0.04904222782636677
aF0.02399708242159002
aF0.03850738533298772
aF0.045884146341463296
aF0.048513763435095954
aF0.02338611449451882
aF0.039428748835765186
aF0.04564082983326958
aF0.047677720040713426
aF0.021503279128166318
aF0.03755832037325029
aF0.04375412415613409
aF0.046719202315857064
aF0.019678783582271934
aF0.03772803726225892
aF0.04125508425334098
aF0.04622186495176836
aF0.018966067178644113
aF0.0386827242953296
aF0.03831359831058139
aF0.044201851554556526
aF0.017564115161638947
aF0.040467207607628196
aF0.03581170699967458
aF0.043721104251850544
aF0.018204212341421312
aF0.041766881319988514
aF0.03541412075716379
aF0.042640733121376354
aF0.018702412340142378
aF0.041991555060487414
aF0.03471634208298044
aF0.04306514640543856
aF0.020395565322600506
aF0.042404570241495604
aF0.03534474181673456
aF0.04210667023125239
aF0.021424692698820108
aF0.04061759575077449
aF0.037438620105186976
aF0.041463675785641516
aF0.0229561611374407
aF0.038655155324864916
aF0.03912706934005833
aF0.042716730496263844
aF0.02452853445088124
aF0.03755574681167348
aF0.039578957895789475
aF0.045903482240839254
aF0.02709165310851445
aF0.03936987371436001
aF0.0394611885839955
aF0.04703553082191768
aF0.029904188067957253
aF0.040235550482515196
aF0.038672236536008105
aF0.04820822532802424
aF0.03203418296779285
aF0.04294780468851174
aF0.036392761494756246
aF0.048867858956879597
aF0.03356702256793907
aF0.043386024370682626
aF0.03284022928086898
aF0.04811760295613975
aF0.03408443023226981
aF0.043073974305843234
aF0.03054332599559728
aF0.047564270618763414
aF0.03365992806647641
aF0.04036663991092918
aF0.029172405158382295
aF0.046446409016853055
aF0.03298912773668264
aF0.036632124352331506
aF0.02885288528852878
aF0.045618885580603875
aF0.03339126117179733
aF0.034316520657301244
aF0.027402037715168203
aF0.04457266880177855
aF0.03415252972488922
aF0.032678723899712714
aF0.025341614906832233
aF0.043182537171780964
aF0.03443902924209261
aF0.030951273704335164
aF0.02376104876353157
aF0.0436280439699152
aF0.03376365441906645
aF0.031888249115649685
aF0.02289582400079632
aF0.0446682090650961
aF0.032773880060490285
aF0.03187179023974804
aF0.0217959244607001
aF0.04447715682666514
aF0.031202058692532213
aF0.033217189314750206
aF0.020548625950404957
aF0.043644957983193164
aF0.029763814506774525
aF0.034592895963732745
aF0.020242914979757033
aF0.04339816301286932
aF0.02797340556513167
aF0.03400519988673505
aF0.021171909944833704
aF0.04098964084766251
aF0.026547580864029936
aF0.03421553987951178
aF0.021886736140472998
aF0.04124413699132657
aF0.02548840425794654
aF0.033707575835607885
aF0.023158627894828428
aF0.040721501474849146
aF0.024627989043259323
aF0.0348707866621827
aF0.022959310722645492
aF0.04205668396214105
aF0.02292164740098089
aF0.03580318839044532
aF0.022866548493289382
aF0.04446165349284329
aF0.02222501571338775
aF0.0342796942110807
aF0.021531162167040506
aF0.042898645163041885
aF0.02133278633881177
asVall_dice
p26
cnumpy.core.multiarray
_reconstruct
p27
(cnumpy
ndarray
p28
(I0
tp29
S'b'
p30
tp31
Rp32
(I1
(I3
tp33
g7
I00
S'H\xd2\xc0,\x90\xc9\xcd?.\x9d\x03\xd1Z\x88\xeb?\x8cX}/\xe3d\xe5?'
p34
tp35
bsVcorr
p36
g3
(g7
S'a_w|4\x80\xcc?'
p37
tp38
Rp39
ssI1
(dp40
g2
g3
(g7
S'A2\x04\xf3>G\xe3?'
p41
tp42
Rp43
sg13
g3
(g16
S'\x03\x00\x00\x00\x00\x00\x00\x00'
p44
tp45
Rp46
sg22
(lp47
F0.021073367386673335
aF0.021476355247981496
aF0.028647537153004887
aF0.022116350218360954
aF0.023767889190557213
aF0.02121775505461301
aF0.02495878897634133
aF0.02247399272491364
aF0.02390000457854488
aF0.01954570688378974
aF0.0254016298020954
aF0.02352394235239418
aF0.022659689725916823
aF0.019291791216371534
aF0.023348109638638048
aF0.020538079085544305
aF0.029862905290598818
aF0.02219098534427131
aF0.024970493624308567
aF0.024302807393267786
aF0.025421189702459088
aF0.02039033585434813
aF0.021568129916264858
aF0.027641821656644694
aF0.020456478267864894
aF0.02395389742640246
aF0.021915416599664554
aF0.020964409258700297
aF0.018979072592660465
aF0.02246279382447025
aF0.020623556581986096
aF0.023686728431075065
aF0.02119247919827145
aF0.021155316634613106
aF0.020392627280906087
aF0.01970420510918443
aF0.02312138728323694
aF0.024231473116037655
aF0.026782616740291816
aF0.021613933642658907
aF0.02170035671819258
aF0.022964799666303562
aF0.025752554542943878
aF0.022468258942042053
aF0.021998857795545352
aF0.023307050092764323
aF0.023162994578382688
aF0.023918657949230964
aF0.025165016501650105
aF0.02147083294813714
aF0.02264603463782482
aF0.020632512545221096
aF0.02319510910631277
aF0.020689655172413744
aF0.023769846780539682
aF0.024101440492284684
aF0.023784379448092145
aF0.016444106183260646
aF0.02586326767091535
aF0.020754192532196746
aF0.02199963410171967
aF0.019100630528673997
aF0.02504459838287416
aF0.025317043712546974
aF0.028132110597807285
aF0.021305267070932315
aF0.024678161453734197
aF0.02116292458261365
aF0.022940107222567306
aF0.025271512113617316
aF0.02999416909620984
aF0.028590719657283815
aF0.026109960892569527
aF0.026496106265054543
aF0.02661191155657635
aF0.022814932560368352
aF0.025195002415959077
aF0.021606008087810463
aF0.023695365158779735
aF0.024085493068756028
aF0.0240164104455251
aF0.023604008053132102
aF0.022354798272900267
aF0.020383223039498213
aF0.025155781213939476
aF0.022149036342973716
aF0.024724380146066833
aF0.020331765751854143
aF0.02713900973689656
aF0.019497709537073225
aF0.023378195873888084
aF0.02171057180391338
aF0.025789413250660177
aF0.01873156004848702
aF0.023835622828089594
aF0.02412290865273202
aF0.02200494596079863
aF0.022133951736964107
aF0.022994627639866563
aF0.022495549441657173
aF0.022873037401438995
aF0.019956924204930757
aF0.02281615179914376
aF0.024725338267607203
aF0.028483502244435122
aF0.022310738625897903
aF0.021215132536802888
aF0.029574086579884893
aF0.021626317353633673
aF0.021678545321637377
aF0.019407864444239756
aF0.022946273830155926
aF0.019301744492584143
aF0.018849297456148363
aF0.019609658972518648
aF0.020268552543391296
aF0.023386342376052333
aF0.016142543412800796
aF0.019998616012732635
aF0.020457529891492108
aF0.022894128948150804
aF0.01848420481764356
aF0.02210864688605716
aF0.018640274990195355
aF0.02030422227780173
aF0.019611848825331925
aF0.023802329095093038
aF0.020386887524614802
aF0.019140607219263462
aF0.01932203389830504
aF0.024509459996725776
aF0.021266222459545372
aF0.020555950225725827
aF0.01794261086537367
aF0.024564589736425387
aF0.024656961760813483
aF0.022439651806426368
aF0.024213958366583768
aF0.023704597114626285
aF0.020597560693374015
aF0.021150379885463914
aF0.018324190207370607
aF0.022591684780095215
aF0.022885687732341953
aF0.018248092037817475
aF0.0197574601444338
aF0.02257676098735696
aF0.022937160050919978
aF0.019535459610666498
aF0.021221982857404727
aF0.02222733019193191
aF0.022006129455953125
aF0.019693754136144725
aF0.02288156902187573
aF0.02331045713621025
aF0.023195162481536136
aF0.019390897684498642
aF0.020931988195731197
aF0.025308180799402256
aF0.022261819359914788
aF0.018341525578008333
aF0.023216177622184295
aF0.027593433461404054
aF0.026521638509604196
aF0.019479927007299225
aF0.020462122082997997
aF0.027067214981064503
aF0.025136687980724617
aF0.01866739337784435
aF0.020621908455446876
aF0.025942139763277913
aF0.026791694574681786
aF0.021258503401360495
aF0.022746263113916945
aF0.026360405973476955
aF0.02619361097637025
aF0.020016527407951474
aF0.022125026173138166
aF0.024980266518085097
aF0.022709007829900523
aF0.02211285338216774
aF0.01883561643835612
aF0.026597966856983644
aF0.024859459957607535
aF0.020661537752798588
aF0.020993522531338783
aF0.028052805280527986
aF0.021641242418672987
aF0.021247177029082312
aF0.02227533238972545
aF0.027067808807484207
aF0.02168446792313543
aF0.021413721413721363
aF0.019157264563665625
aF0.023123666388347657
aF0.019970617941419473
aF0.021507369982386153
aF0.018968063503784337
aF0.02262632839569327
aF0.02106015870086727
aF0.024047029416529673
aF0.020219952505014592
aF0.024044604483679812
aF0.023003121026470875
aF0.02221657111152205
aF0.0254225547243003
aF0.024011625224892686
aF0.020540490470787067
aF0.02269477374417634
aF0.01919988989310451
aF0.024276184581528037
aF0.021705533642423773
aF0.022052391694673306
aF0.02254962993705466
aF0.021986839993580434
aF0.023312826680234922
aF0.023129441270725876
aF0.023059061544474277
aF0.024233409610983924
aF0.022871487343978748
aF0.02515518564155017
aF0.024757927584782652
aF0.024787486465940183
aF0.020670690498939617
aF0.020570685612128763
aF0.024558657674868173
aF0.022047823985638943
aF0.021669194356358237
aF0.02479300507920304
aF0.023036721221290003
aF0.027270825099388493
aF0.0215336376631161
aF0.023977630199230982
aF0.030111082648284784
aF0.023087525844245293
aF0.01987795857988161
aF0.026840311814405014
aF0.028989908428331084
aF0.02412553573897409
aF0.021996498986548686
aF0.024593967517401335
aF0.026084530617938285
aF0.0219384338267556
aF0.023375548762268085
aF0.0257876991047552
aF0.0266713172886873
aF0.023199333857612008
aF0.025484012062892733
aF0.026057110836115654
aF0.023129600298145852
aF0.020151249654154706
aF0.022089001614018854
aF0.023831710385314207
aF0.02506666666666661
aF0.02467337264423627
aF0.024098601913171393
aF0.023405500292568698
aF0.025394329062398757
aF0.021290890556945552
aF0.022955721679125882
aF0.019088041562297015
aF0.023328473234742707
aF0.022769828243833598
aF0.023789097822810582
aF0.02268452947595713
aF0.01988584054501929
aF0.01932355943212392
aF0.022636884942656255
aF0.021647527319874
aF0.019913599926074756
aF0.02254709942174962
aF0.02055061881472292
aF0.02414875072632185
aF0.016593022185399944
aF0.02157200764105665
aF0.018741355463347122
aF0.01969703967117716
aF0.02002390914524801
aF0.026640872645907077
aF0.022026633661096924
aF0.01894131185270421
aF0.01988838619295864
aF0.02640394547061828
aF0.020899361535988193
aF0.02333302591533703
aF0.017224330228814495
aF0.028137666049715276
aF0.018639499291881724
aF0.02141934888868389
aF0.024254767635622974
aF0.02733964248159825
aF0.020658989852924362
aF0.020164267257290466
aF0.021173539994464384
aF0.0207101277858948
aF0.024394176725329345
aF0.02081895560156425
aF0.022018813981370417
aF0.0241875233470302
aF0.023164063401241206
aF0.02519240991980025
aF0.025440811881646874
aF0.023677664617261875
aF0.021548357454628943
aF0.02247242752872367
aF0.024615384615384556
aF0.022703579288775574
aF0.022735666143477003
aF0.02219725286064798
aF0.023343877715948133
aF0.020336540696323107
aF0.027019479159393917
aF0.023265932354759614
aF0.021033736825148384
aF0.02371642694223334
aF0.027000023235820278
aF0.02103968850331302
aF0.016631492016883794
aF0.02107364170167331
aF0.02267427093675674
aF0.022814386375634
aF0.017597586616692525
aF0.019522927281148635
aF0.0287809859808745
aF0.023339152807130333
aF0.020878313197666358
aF0.01914199114012586
aF0.0245880861850443
aF0.021767673277589612
aF0.018247590264899104
aF0.018641718641718596
aF0.022389942878116992
aF0.02277983348751151
aF0.018159778606225516
aF0.021031223277635208
aF0.02277447044164469
aF0.020067743132887852
aF0.022191528545119653
aF0.02031555431443726
aF0.02530101065911544
aF0.021782178217821732
aF0.02100879009618477
aF0.024234397509177878
aF0.02381939645243026
aF0.023046394504142725
aF0.024559542477631157
aF0.01945443993035399
aF0.020349104271933805
aF0.025320274786483417
aF0.022762425837430978
aF0.02090681269723403
aF0.022223749627694866
aF0.022724637681159367
aF0.02276381678687917
aF0.022713007090549756
aF0.02135345958259504
aF0.020312354745746906
aF0.023623315084878263
aF0.02008050710220696
aF0.01908475742631031
aF0.022227372812608594
aF0.02223341652737384
aF0.02255795659617782
aF0.022924283185026734
aF0.020934051953459275
aF0.019990913221263017
aF0.023491960219351186
aF0.02642056569469051
aF0.01710191818812106
aF0.021785844915874125
aF0.024436090225563853
aF0.025762696171473483
aF0.020371990239859996
aF0.020281314026565942
aF0.025389672233965887
aF0.02708892384565553
aF0.023576861027886555
aF0.02274298354762887
aF0.024495544165858557
aF0.028471899674872205
aF0.019569606313664265
aF0.028809056255053644
aF0.022525849335302755
aF0.028648812720352964
aF0.023000642732531395
aF0.02435319031396735
aF0.022294172062904665
aF0.02891255999063554
aF0.027507563416336915
aF0.024763879290486006
aF0.027720595115560895
aF0.02418654843174508
aF0.024221613846225176
aF0.022104536034998797
aF0.025942127301223358
aF0.023848301535597895
aF0.02409163632990928
aF0.022170974518220792
aF0.024430119581464814
aF0.024025142591083636
aF0.027756486191438393
aF0.021729122548568222
aF0.02619893428063937
aF0.02225529638845603
aF0.024973937217653133
aF0.021447965865790446
aF0.027097471059243365
aF0.021512325731696008
aF0.02756262647407711
aF0.026936648140033607
aF0.023322795925535596
aF0.02003592648887656
aF0.027693950508380083
aF0.022966703992321525
aF0.02608184383819373
aF0.022930467410941718
aF0.026963684882236855
aF0.02131569276001465
aF0.025048484706871918
aF0.022676734920781934
aF0.02625136968736151
aF0.02128783355532076
aF0.02308032699070726
aF0.020687415928382528
aF0.026464238456716978
aF0.019536803485439073
aF0.022126869998840257
aF0.021727461551027977
aF0.02765982132497963
aF0.019995867673729836
aF0.020537454747981014
aF0.023515769944341316
aF0.029243424863862753
aF0.022741891022695894
aF0.02312918838421439
aF0.02285102620188946
aF0.02839962997224785
aF0.021040150652128376
aF0.022869506549100752
aF0.020572802293058363
aF0.02377146034614577
aF0.02216949310256584
aF0.019576350093109825
aF0.02291979226774374
aF0.02078473938246225
aF0.02462310390485255
aF0.021676702176933713
aF0.020230149597238158
aF0.024421771848021735
aF0.02559186973091575
aF0.022466137319009757
aF0.02199113926956357
aF0.021870840409418408
aF0.019383583666345093
aF0.01984034900450174
aF0.019982983420332466
aF0.02074745809288261
aF0.02270150186286529
aF0.024052986288635777
aF0.020853907811028638
aF0.025734873613176196
aF0.021241792420228035
aF0.02514538264712718
aF0.023126968436055946
aF0.02570050528249879
aF0.022136558792299473
aF0.022529120457557315
aF0.01945747968410205
aF0.02207825028143446
aF0.02097902097902093
aF0.025630887312478135
aF0.02397260273972597
aF0.026248340885166307
aF0.019619500594530274
aF0.025248643234807664
aF0.023755317925721456
aF0.022661919759003096
aF0.024573847385882565
aF0.023908548061060842
aF0.026733519720880734
aF0.024307946563834126
aF0.022536243501362657
aF0.027386705890593197
aF0.02495832561585473
aF0.026551716231398834
aF0.023924216931338824
aF0.02428754216587176
aF0.02377703249681965
aF0.024513288541356086
aF0.02111554704266951
aF0.025624406842434142
aF0.019444637118216875
aF0.023199724359710523
aF0.020485236896314898
aF0.026456007042579745
aF0.02268155649580351
aF0.02536607863484371
aF0.025393014612525622
aF0.026992526574757397
aF0.029506824470434977
aF0.023461081130522216
aF0.030016599040944232
aF0.026162723333256026
aF0.02715785064345715
aF0.025583648611239213
aF0.02759981429897858
aF0.024806237527265917
aF0.030511558468823554
aF0.023987488788206286
aF0.025874383668955288
aF0.023535965462015123
aF0.026018757709045996
aF0.026303645592985633
aF0.02925353836207885
aF0.02380286938699454
aF0.026461194134240956
aF0.026917497524695418
aF0.027626842744801275
aF0.025418590550813802
aF0.02327410697760498
aF0.02595448125766936
aF0.024339839265212344
aF0.024109792284866413
aF0.02236295729231906
aF0.027475845410627954
aF0.023898878732760746
aF0.023179805753227735
aF0.021894766108292156
aF0.02496994358642369
aF0.021584549041196388
aF0.02505026228826283
aF0.022103009232611097
aF0.024251531614842156
aF0.022270542458228376
aF0.021739630541305247
aF0.022095211542482698
aF0.026381851145925277
aF0.022926438622583176
aF0.024118567614839305
aF0.024845876468535477
aF0.026166755276114683
aF0.01955644701752782
aF0.021302342572720165
aF0.02671595982142851
aF0.02893145861805372
aF0.023042531239252498
aF0.020610565194591958
aF0.02497745091237072
aF0.025895316804407653
aF0.020173634909755492
aF0.019232962971412883
aF0.026959479786175394
aF0.02526984419230852
aF0.024011591802939294
aF0.02007976894512442
aF0.02366236162361618
aF0.025370515720947354
aF0.024667233729510966
aF0.021584888274591058
aF0.022331645745197255
aF0.0219919401266551
aF0.027695145854952086
aF0.019901866373182878
aF0.021923833777057478
aF0.02243774332511686
aF0.027602760276027538
aF0.01810421972878085
aF0.02134976688362641
aF0.020675396278428623
aF0.028569436050025505
aF0.019673715455946938
aF0.024154253097591477
aF0.02202935720992003
aF0.03177857508969752
aF0.02001886835868285
aF0.026755156784756203
aF0.020259859721743084
aF0.03063213589529372
aF0.022877173562105016
aF0.020795036764705833
aF0.02198616029068013
aF0.024573489296777416
aF0.025306783977772574
aF0.02138260328004977
aF0.028407901165631258
aF0.026962894032802075
aF0.026164202928725042
aF0.022588634591569914
aF0.027418496494597218
aF0.024558070569700843
aF0.026316400176370873
aF0.022145058179643972
aF0.0276065831082796
aF0.022299732589233758
aF0.022463818616860587
aF0.022130237720839833
aF0.0289791387205698
aF0.021054825932874662
aF0.019849512994506716
aF0.02008115460875174
aF0.027530981007546147
aF0.02445620766972556
aF0.02335411849879721
aF0.020371826296073578
aF0.023488152096167544
aF0.022368996386900736
aF0.02326609432074632
aF0.020527255251956564
aF0.024819911340967803
aF0.027028286499836834
aF0.024593773904174623
aF0.02082088523233897
aF0.024053318573866462
aF0.02556463904669524
aF0.01972149735584135
aF0.021376637078832035
aF0.02393115191679317
aF0.02167720419648435
aF0.023109922044374686
aF0.02220944936199558
aF0.02175107610587045
aF0.02185526954832438
aF0.020163336870760808
aF0.019569606313664265
aF0.02646111366774039
aF0.02367790676248382
aF0.022312608948285826
aF0.018997276210701217
aF0.02403348589038885
aF0.019449956162613587
aF0.023299675690594972
aF0.02222884933015227
aF0.026657426657426594
aF0.019362553465483098
aF0.024167090245367534
aF0.025905415112264463
aF0.02710096209574585
aF0.02143480056914669
aF0.02076052970388077
aF0.025650557620817784
aF0.024886303298935694
aF0.021085864405217262
aF0.020486997309788185
aF0.024641566616155672
aF0.025727795290190928
aF0.022937579323872106
aF0.026175349428208323
aF0.02007985782537443
aF0.026817612397346015
aF0.024242283914885678
aF0.025953146531924605
aF0.022298654232358387
aF0.024450441722602762
aF0.019934934588495833
aF0.023719922454099613
aF0.01989016567446578
aF0.02372725178530287
aF0.02354439171200365
aF0.02208468460238427
aF0.02571079392164543
aF0.027368809710619772
aF0.021944011355967647
aF0.025791594703511743
aF0.020950139590687752
aF0.017771968446156628
aF0.025906615687637524
aF0.023840724647676795
aF0.02081889181570308
aF0.018873982341474558
aF0.023746947319455695
aF0.023231837239672776
aF0.023450315366310044
aF0.02320650796211365
aF0.025670728881886783
aF0.02240471097002732
aF0.024390243902438966
aF0.022875367107195246
aF0.02495798125849003
aF0.019681713359362467
aF0.023997793306362578
aF0.025402826122034934
aF0.01955872213284298
aF0.021286855883163355
aF0.026698860074756744
aF0.022842232954155266
aF0.018696299690686174
aF0.021798114509082495
aF0.027227838077048427
aF0.020543270543270497
aF0.0220270426441696
aF0.02409362092703069
aF0.027702639679134344
aF0.02081813206858806
aF0.022049768814331135
aF0.020533880903490714
aF0.023590240749717186
aF0.01955861880092197
aF0.021256931608133037
aF0.021057429352780262
aF0.027838605973069867
aF0.02151372584844466
aF0.023520943624036353
aF0.020280918122644695
aF0.029091582897113936
aF0.018411758003873718
aF0.02354916178973624
aF0.018652144315861086
aF0.02947598253275102
aF0.019744033521588586
aF0.020609298362769656
aF0.019267206939847004
aF0.03146616979154528
aF0.01720058245358569
aF0.02041948985963041
aF0.020197211832709915
aF0.027735298206589674
aF0.021799671292914484
aF0.025633939058937273
aF0.021300371730256056
aF0.021414560978423855
aF0.019587746270356407
aF0.019630830057697123
aF0.022500862763142705
aF0.01901175606171928
aF0.021572212065813477
aF0.02033773524133801
aF0.02425175853983719
aF0.024093324093324035
aF0.019718695146693367
aF0.021052874305347333
aF0.02299616347722203
aF0.02355682709611918
aF0.019132303191002974
aF0.022753442955183955
aF0.022815612134593658
aF0.0256290990278617
aF0.018909772716879273
aF0.025510673536989267
aF0.018130622896779025
aF0.027531454570778522
aF0.024926989675075253
aF0.01997055034051164
aF0.021168869848106436
aF0.025997455765005142
aF0.024115130299494303
aF0.02346504280939512
aF0.017856327350778602
aF0.02958072735696078
aF0.025070727051084422
aF0.02342789543272013
aF0.01920836854486897
aF0.029968015575024265
aF0.020870561282932368
aF0.018641565153193016
aF0.020292058227381563
aF0.028859060402684496
aF0.020103033772180836
aF0.021987666581980224
aF0.020276794335371693
aF0.026477288576874734
aF0.021725166322550993
aF0.025055370985603485
aF0.02009587020648963
aF0.02512398240853367
aF0.02502575844304516
aF0.029881910771871956
aF0.022483322176311667
aF0.02161811096678414
aF0.02772135536884861
aF0.02230662983425409
aF0.021439332483485868
aF0.022798742138364726
aF0.023253680686144054
aF0.02090886289531883
aF0.02293514090719155
aF0.021166088295451885
aF0.023957713605784577
aF0.025140436504282104
aF0.022441527225663255
aF0.02225179788923129
aF0.01842866580104326
aF0.023740165607725246
aF0.021675103543488214
aF0.02627371932995059
aF0.020683842456547936
aF0.025641613198900032
aF0.022578044004146935
aF0.028891372165572405
aF0.02168962899924093
aF0.02589324794397469
aF0.02365901273589285
aF0.022058823529411714
aF0.024909805363421134
aF0.023517804698972043
aF0.021038094142018595
aF0.0228481931040836
aF0.021323917180657095
aF0.022367790381850085
aF0.0207505314724096
aF0.02780738749594469
aF0.024315760470242413
aF0.020887847277526177
aF0.021471680594243217
aF0.026785096320221417
aF0.02045190268815974
aF0.022961692395654605
aF0.021518313704620602
aF0.028797512414721237
aF0.020706989185325198
aF0.02406447635790766
aF0.019672131147540937
aF0.025254742484807816
aF0.02199867091363225
aF0.024112663155484257
aF0.022782580480682265
aF0.023278348137039974
aF0.021382981174681393
aF0.021786891248626827
aF0.022449500220320457
aF0.02507333426456203
aF0.022276140958983195
aF0.019476804064724282
aF0.024520772300523574
aF0.026497109826589534
aF0.023122593812328902
aF0.02260482817120974
aF0.02681885671863394
aF0.022147573265376988
aF0.02283989029477512
aF0.023442136498516265
aF0.02916135019139304
aF0.026541455003029252
aF0.025254280484696773
aF0.023437322229048572
aF0.020979986197377454
aF0.029608181945547027
aF0.022315299592786452
aF0.020053841941960165
aF0.022371261886168354
aF0.024871794871794813
aF0.022723065531284656
aF0.023311621528968065
aF0.01822002586366151
aF0.02794908193898204
aF0.025002330133283564
aF0.02412005207738511
aF0.02436246135248849
aF0.022260789077866428
aF0.024918291184719814
aF0.02257872846108135
aF0.020600326114415587
aF0.026351039260969916
aF0.023076032866566315
aF0.022933052862630275
aF0.023193577163247048
aF0.02032426970420719
aF0.024177860120426067
aF0.0234317681584739
aF0.021033653846153796
aF0.01902387218913049
aF0.01960064264402107
aF0.01997333823664609
aF0.020556922440157232
aF0.022197071187693394
aF0.02049557848194542
aF0.019575856443719366
aF0.02128930023195457
aF0.021451612903225756
aF0.02042698390740992
aF0.019830158365848016
aF0.02089917187608124
aF0.025404582968324898
aF0.021135880122097814
aF0.01888893940082734
aF0.017903930131004324
aF0.02533487297921472
aF0.019935854542098293
aF0.016321048917620776
aF0.017506631299734707
aF0.02349109555817332
aF0.019239641967334086
aF0.015458893397103123
aF0.017289343602712916
aF0.021077121533216572
aF0.017512853470436976
aF0.017426425540604893
aF0.01993240114825442
aF0.023851183350216354
aF0.019608296529238976
aF0.016738587326822582
aF0.018530896351441634
aF0.01966880858610281
aF0.021660232552763534
aF0.017250784126551167
aF0.016591701854231648
aF0.02182187262116209
aF0.019949605862363853
aF0.018021707966414047
aF0.02167061584117412
aF0.02556079604279299
aF0.021879858001345686
aF0.018766451847145278
aF0.021317293510324433
aF0.02251506370452136
aF0.01879069767441856
aF0.02062982444156017
aF0.023399100034613998
aF0.020863624824020814
aF0.022434411791971764
aF0.014831134025301472
aF0.01898951906978873
aF0.020023148148148102
aF0.02134635507499123
aF0.014776530589012056
aF0.019815424271017883
aF0.021458338129993274
aF0.023384886907249956
aF0.016648016625179802
aF0.022764679973108878
aF0.0222325689675241
aF0.026652377513221286
aF0.019215390591084562
aF0.022584895628655257
aF0.021684910627684583
aF0.026207378098452166
aF0.021226198141845228
aF0.021433371179646356
aF0.022912728781522236
aF0.02326121813491966
aF0.0291620524178663
aF0.02075852002872826
aF0.02021619135234586
aF0.020502857142857094
aF0.023331098110851566
aF0.02069285134978561
aF0.02054762894214337
aF0.020968957719454485
aF0.02644280732546586
aF0.024286581663630787
aF0.021736120725460283
aF0.02342102850857085
aF0.022091683943791702
aF0.02367565055762076
aF0.023539243679921943
aF0.021730132450331074
aF0.02505689524378744
aF0.025959940926712142
aF0.021469135232466824
aF0.021694214876033006
aF0.027232060505441736
aF0.0298190309398715
aF0.021510371901786285
aF0.0208434095672401
aF0.024426214397640277
aF0.025089187865786775
aF0.025009254118082486
aF0.02491119619873593
aF0.02537474959128687
aF0.026466613857695293
aF0.02425460323394704
aF0.021172601237923347
aF0.026715352083381418
aF0.02690822828968783
aF0.026451224035608248
aF0.02211212037801628
aF0.02738167123414922
aF0.027181854025094446
aF0.023076032866566315
aF0.026586046940989067
aF0.031110698365527416
aF0.026422247393605894
aF0.023155790109966698
aF0.029314758862467354
aF0.029748496319175054
aF0.02220222022202215
aF0.02376697226412899
aF0.026074863831266597
aF0.025656421033184707
aF0.02433326394189618
aF0.02991742883207403
aF0.025958688403112204
aF0.024631340139361472
aF0.025736992884206576
aF0.02313630656187503
aF0.02813174570016009
aF0.026087768876847918
aF0.025482876156468045
aF0.02520754365974461
aF0.02632496108180946
aF0.026859263062095937
aF0.024520329708388112
aF0.024515048611434095
aF0.026590935435261327
aF0.02447171255596014
aF0.026244280837029923
aF0.025211454668313198
aF0.02225618935130498
aF0.026993520619400652
aF0.02234998037450065
aF0.024660654518408272
aF0.021411797209559283
aF0.02915960052760498
aF0.023806769543992724
aF0.025431425976385043
aF0.02085635359116017
aF0.02513907963036236
aF0.02598875286385405
aF0.025268981036543854
aF0.02079045350477551
aF0.027119671672418553
aF0.0224055237609768
aF0.027140556813143153
aF0.023239728869829796
aF0.030235110083817723
aF0.025670239728416245
aF0.024006872373522732
aF0.021469344364585932
aF0.02440788706101966
aF0.022321947589927168
aF0.025171997024916265
aF0.023776450432930443
aF0.026665114112715355
aF0.022719353265035838
aF0.02662310579730287
aF0.024608449133243424
aF0.026437449181089496
aF0.026343911164800383
aF0.027237534481559546
aF0.02021507361425204
aF0.024444495933640665
aF0.02407604422036166
aF0.024795690936106923
aF0.017594838237312914
aF0.02731372228323085
aF0.026355404247435033
aF0.02637449458567638
aF0.017810769195412822
aF0.024189230088701545
aF0.023485926810229985
aF0.021542866378812666
aF0.019349144038465958
aF0.02562305841683595
aF0.02501384530182752
aF0.02625414569659293
aF0.01945173046122416
aF0.02403655608141183
aF0.02054636753121108
aF0.025292510334197375
aF0.019748278979208632
aF0.023094045631608183
aF0.023353973886221797
aF0.02317033452752053
aF0.023108856088560833
aF0.024822942064321316
aF0.023121253500590126
aF0.024779953087623898
aF0.024665387549411624
aF0.027508429252412446
aF0.023117768451318146
aF0.02760243180918211
aF0.023199834941885735
aF0.026105253422123505
aF0.02190688995876616
aF0.02671473470142349
aF0.022044456704135296
aF0.024936737980216183
aF0.023478422101701146
aF0.02225416106449065
aF0.0244955784566871
aF0.03130394751985261
aF0.027757674798645902
aF0.024395921597839692
aF0.019391025641025596
aF0.026896280350901493
aF0.022417357771737815
aF0.02350843060959787
aF0.024016257158691982
aF0.02901398682233261
aF0.02522619409440529
aF0.02792553191489355
aF0.02046743189047153
aF0.027625205682634525
aF0.02416784908469209
aF0.024521322383267746
aF0.02102614997576564
aF0.02909577166044167
aF0.025765045112082535
aF0.02379513872751772
aF0.02174714338370802
aF0.025909248354693392
aF0.02431709868650465
aF0.022871192966992127
aF0.02071867918420196
aF0.02434128558903598
aF0.025210084033613387
aF0.023309159155680104
aF0.022349596690318205
aF0.026004618937644282
aF0.025713754301125206
aF0.023796747777803644
aF0.024296645629609023
aF0.029923002443634952
aF0.02277061915616127
aF0.023510421783984783
aF0.026868860453774814
aF0.02421737925939601
aF0.02460124988340634
aF0.02376910016977923
aF0.025636853849014443
aF0.01956481989394766
aF0.02190945018373426
aF0.02494042523656381
aF0.027084439723844864
aF0.026605652263894896
aF0.02493927125506067
aF0.02666450822136392
aF0.028191871652794777
aF0.025425877688388866
aF0.022635221144721867
aF0.025003463083529517
aF0.026878095282382695
aF0.026344929408507828
aF0.021265272121436456
aF0.02456326832424433
aF0.02269989808209019
aF0.02356311217889479
aF0.02657622078706494
aF0.020730141258484634
aF0.022318231176212316
aF0.021668971876440707
aF0.021013909644786707
aF0.018609341339322502
aF0.024545832755512354
aF0.02190409683426438
aF0.021400325657129515
aF0.017895903569944076
aF0.03083259645366959
aF0.02562261091161815
aF0.024217820396164286
aF0.017507582023711016
aF0.02552601916212656
aF0.02518044048365006
aF0.02169551625997289
aF0.023141070187630244
aF0.023147396497738552
aF0.026557475651791642
aF0.024752244916949644
aF0.023710838909857077
aF0.02914292359576688
aF0.026340654022538136
aF0.02050747306221754
aF0.021207366040522403
aF0.02653836296279031
aF0.026537606520933617
aF0.019627016833135388
aF0.022242731887401886
aF0.026237508714850043
aF0.02617873121486744
aF0.0229174501692365
aF0.022494034795098053
aF0.02735930332735691
aF0.023739755505700233
aF0.02655840509172588
aF0.020799779117389856
aF0.02517677060391787
aF0.027182411921626282
aF0.022595717971964517
aF0.02125752631337036
aF0.02386800760068586
aF0.025481222546742344
aF0.024003349304554066
aF0.021036006134547987
aF0.02504189164029039
aF0.027857652227921997
aF0.030532566512367253
aF0.022819192940527568
aF0.02418303696117674
aF0.025164741808830562
aF0.023984597898448135
aF0.023085091647813787
aF0.024552950986750612
aF0.027725628462841642
aF0.02734210403108753
aF0.020321936209786628
aF0.021724090217240852
aF0.02501837897445317
aF0.029990671641790975
aF0.024695668365803076
aF0.02308086454257494
aF0.025537603429598668
aF0.021764828593282753
aF0.02199376227330479
aF0.02314018865294358
aF0.02091368227731859
aF0.021092956706360147
aF0.02326279800406574
aF0.02760139647133244
aF0.02663643442810676
aF0.020929964232144868
aF0.022419961897681282
aF0.025894736842105203
aF0.028488909426986994
aF0.019729242711269187
aF0.026484993384554612
aF0.024640513751221498
aF0.027735333611149632
aF0.02331225351784
aF0.02324670537277665
aF0.022036067481093605
aF0.029516787237989173
aF0.01994374840194319
aF0.02781312909271808
aF0.021935124082163717
aF0.02205730303517675
aF0.02231071985840373
aF0.026551333348752162
aF0.022667345145024696
aF0.024010743476348087
aF0.0179243967080485
aF0.020301544383850373
aF0.021230492611972934
aF0.022116138554494666
aF0.019648059666705464
aF0.021575295252975458
aF0.021324328699956006
aF0.02248384118190207
aF0.016554530531085947
aF0.027436009474967164
aF0.022533382789317453
aF0.024177838890798616
aF0.01923254738788715
aF0.026739809034153444
aF0.024138092342236926
aF0.02418468303407836
aF0.023765231141289127
aF0.027996036775040836
aF0.02393405874935781
aF0.026995686256319804
aF0.020419515586974107
aF0.02414551452396219
aF0.022592540727255698
aF0.02354410472269757
aF0.02382341274470909
aF0.02733333333333327
aF0.021956552077033953
aF0.02198563543567118
aF0.025795094472479695
aF0.023946734014464413
aF0.02366022518007407
aF0.02373621323529406
aF0.024049125592472333
aF0.02489204978409951
aF0.022169382474298848
aF0.020890788747931557
aF0.022562186149713833
aF0.02609735347543164
aF0.02199700564321082
aF0.02012590175986762
aF0.021947745686333973
aF0.025272512670971265
aF0.024282050689647148
aF0.023410985154572475
aF0.022835306179513414
aF0.024948601261290337
aF0.02490749306197959
aF0.027614189659169886
aF0.023337655121318707
aF0.025004062870011317
aF0.02181969795237649
aF0.023010392530225462
aF0.02410340009315318
aF0.024161042909459373
aF0.024416258956106326
aF0.025363325002314113
aF0.024628230989351164
aF0.02264691609086492
aF0.025082995204721445
aF0.022991683369041806
aF0.02139472217060021
aF0.023979591836734638
aF0.02280167842486277
aF0.023598547069847018
aF0.022975141269213722
aF0.024228105528918478
aF0.020607449856733476
aF0.024887403073779946
aF0.02424580227130211
aF0.024342181523125016
aF0.02477472286879762
aF0.02224012892828359
aF0.02218084487373438
aF0.021169145624351387
aF0.022866768194194417
aF0.02264780121807187
aF0.023027390229107315
aF0.02527184623588596
aF0.024139048324384318
aF0.024957288636468518
aF0.02222953285083179
aF0.02173209414158223
aF0.023633369668576144
aF0.022613355507818764
aF0.020631323161756067
aF0.024137451307735057
aF0.02122505479294031
aF0.02299620966996389
aF0.023811762493535744
aF0.020311300342011538
aF0.022489756456884988
aF0.023434630921777395
aF0.023655711903027968
aF0.02303147789162738
aF0.021171098452526415
aF0.0226027712562721
aF0.024840229509726114
aF0.022743606983052365
aF0.017500576435323916
aF0.022884303269186126
aF0.02634102977986753
aF0.023662622761409534
aF0.024487999258641403
aF0.019380114518858474
aF0.026282006395443768
aF0.023769808173477843
aF0.023427241943286208
aF0.0225301681043502
aF0.025912975013315364
aF0.024560749405788264
aF0.02281869884866134
aF0.020033775186804496
aF0.029469548133595213
aF0.023777886565494035
aF0.023305182518805614
aF0.018518945596273106
aF0.02352340741428102
aF0.022849587083603917
aF0.022588268001111984
aF0.02105800227277993
aF0.023120718385484115
aF0.02354634961917141
aF0.019561310538684807
aF0.019393576884144614
aF0.02324771238794179
aF0.02298850574712638
aF0.02138717689265012
aF0.025462585825672
aF0.022250788827860177
aF0.02620168772436937
aF0.021523025707416262
aF0.02113310391020158
aF0.019982300060552377
aF0.021648433154088584
aF0.022331016326813332
aF0.0230440309719172
aF0.02224335482673836
aF0.02281554527060022
aF0.021704787416718132
aF0.020456642066420616
aF0.021826682714563415
aF0.0228571428571428
aF0.02295119442221963
aF0.01894383520702573
aF0.022522940031513526
aF0.022331470445006094
aF0.020540416762079183
aF0.014291622627636565
aF0.022154991854782355
aF0.027474061322290914
aF0.021545913587862953
aF0.01547610847052877
aF0.020802826395183924
aF0.024350536083912775
aF0.02207596325243379
aF0.024218983815640988
aF0.017081604426002726
aF0.028070257174804256
aF0.02054263565891468
aF0.018373245251857927
aF0.01996044704042676
aF0.02977065397447556
aF0.024973795743517237
aF0.02116341457822204
aF0.017820140903439658
aF0.0258060004196097
aF0.02380462842391423
aF0.020464538109159502
aF0.01726153634550577
aF0.022767237390097124
aF0.01866248408801596
aF0.021892947392602752
aF0.017909625275532654
aF0.023854144975821882
aF0.019347148358701587
aF0.02328805101192121
aF0.02136159992610036
aF0.02293599257884967
aF0.022334376213204176
aF0.02291609604674513
aF0.021635896129166714
aF0.019732903522910385
aF0.020491144242034364
aF0.02298718066955634
aF0.022889114954221718
aF0.02182848384924408
aF0.02067484522422493
aF0.022810070773871625
aF0.020433694745621303
aF0.019535765478337217
aF0.020434315004233265
aF0.025277378023304337
aF0.020084566596194457
aF0.019866629619338657
aF0.0176424704046985
aF0.023978931805581166
aF0.021891398321736467
aF0.01997899404831364
aF0.022481417953116013
aF0.023828728135874395
aF0.022235076353539975
aF0.02031450203843909
aF0.021686416251086558
aF0.022849896241641635
aF0.0267846825818677
aF0.020512108163170763
aF0.019048930505829387
aF0.024477859396228097
aF0.02315794315150395
aF0.02296998711102922
aF0.022302605810658196
aF0.021673538015063172
aF0.026046490090757487
aF0.02070331391198208
aF0.02151058237653889
aF0.026754234358797032
aF0.022472429658058346
aF0.020806872503059785
aF0.023879696456336533
aF0.030720363543622845
aF0.025324961190018244
aF0.024200997598374227
aF0.021183311796197108
aF0.03266593972577307
aF0.026025840272784147
aF0.021402898550724588
aF0.021804701710759544
aF0.025676645597462373
aF0.02398588246220999
aF0.019476637233259705
aF0.02438179677218253
aF0.024937713389314328
aF0.025622544118672774
aF0.018879653719521976
aF0.02301114638611447
aF0.023110310754028668
aF0.025974629431717796
aF0.019280323946254327
aF0.023892207251007026
aF0.02575624218279514
aF0.02616530121606791
aF0.019685492597794257
aF0.023688072112361066
aF0.022540035175414183
aF0.028471995141775987
aF0.019022983243292695
aF0.02382884031431811
aF0.02297580403803204
aF0.022148213703479382
aF0.021800861042410868
aF0.02296267117732923
aF0.02512225080534885
aF0.023279983371440393
aF0.02215445745835927
aF0.027538646672220616
aF0.02253573590352465
aF0.02322256301455152
aF0.02216015327439343
aF0.02620097416837871
aF0.022515600260780425
aF0.02096334304072477
aF0.019357211825831028
aF0.02692343216033983
aF0.025082446932045088
aF0.02323751330833675
aF0.01894674367110275
aF0.025588867571253494
aF0.021411781134358876
aF0.02499595721579221
aF0.01847116306680666
aF0.023567853170189043
aF0.028389771298150755
aF0.024807923724891174
aF0.01989617398861111
aF0.02030351805012642
aF0.026749878198733205
aF0.023577367579961497
aF0.018423464711274016
aF0.02257284348727393
aF0.0215336376631161
aF0.02697766887049788
aF0.024557527215816187
aF0.022757482696979366
aF0.02063664273677888
aF0.02161253941583994
aF0.02288067726804708
aF0.02172119879021166
aF0.025107703710566486
aF0.02063371705613377
aF0.02191459516637151
aF0.029554151874221887
aF0.02595926321161781
aF0.02446256486286132
aF0.02285964225695798
aF0.024164252540580255
aF0.025462802066680508
aF0.02339491916859117
aF0.022390289878393546
aF0.021256974224189557
aF0.027797758544678218
aF0.021964570293553774
aF0.0242601237151332
aF0.021650692960077173
aF0.025106738444403132
aF0.021068228648160534
aF0.022613531047265933
aF0.024620861845755446
aF0.023663857785986325
aF0.019987565339535267
aF0.021062566180194232
aF0.025266665124135158
aF0.025408932181584208
aF0.023891339679591308
aF0.022237632917244517
aF0.024844863780017934
aF0.021600899846199707
aF0.02548805682583155
aF0.024672338468613417
aF0.0267846825818677
aF0.02381775840999741
aF0.023149118516965873
aF0.01929290132004057
aF0.0255840851260698
aF0.026999033282695695
aF0.024919576670240976
aF0.020083198520915137
aF0.02693306137585753
aF0.026593411666935924
aF0.0241207666542612
aF0.01955978914269856
aF0.02042130438782076
aF0.02616018222396055
aF0.025684771431242343
aF0.01834567844612099
aF0.02356403067726309
aF0.02738460828003411
aF0.02610269379799989
aF0.01998526432123775
aF0.02494089286542111
aF0.02648359320456126
aF0.024616383106949087
aF0.020395478925439053
aF0.024370373818723465
aF0.026606716573573996
aF0.024335097083983997
aF0.022389780483305612
aF0.023949452948965076
aF0.025322889951710854
aF0.022872315647272504
aF0.020689495924446345
aF0.027934003873888523
aF0.02801569064364128
aF0.02137667660208639
aF0.01871984857927655
aF0.02512949741005174
aF0.026108340419663933
aF0.023737420797614553
aF0.020110237310025092
aF0.025559105431309844
aF0.02422464956238592
aF0.02106049639263111
aF0.020963394687737516
aF0.02562552320714346
aF0.02241602664939386
aF0.022838882492539715
aF0.022595852395438976
aF0.023390592762593542
aF0.02325150103159695
aF0.022331460674157252
aF0.022898303914574314
aF0.029670046600941316
aF0.018268631928586215
aF0.022893258426966236
aF0.024351668798697466
aF0.025633861842564724
aF0.019349773713863445
aF0.020100972326103167
aF0.02208048243070852
aF0.023614937605630486
aF0.01989786529260209
aF0.020439412569890677
aF0.023317374090783483
aF0.02483953935630367
aF0.020343819759280093
aF0.02333714125848035
aF0.024722537593549376
aF0.023851426454242257
aF0.019750351860824578
aF0.022568436694606276
aF0.0211343889004125
aF0.02746858584222334
aF0.02147794219974945
aF0.02257278139796535
aF0.018804443010554412
aF0.023034886670202166
aF0.018657234013039214
aF0.022834884426095624
aF0.018892297755530394
aF0.022647079172528256
aF0.019134756055082042
aF0.021630189031070036
aF0.021870530152724537
aF0.026968890944836295
aF0.021179469354651786
aF0.02157322136908761
aF0.021233081324539785
aF0.02803197034634535
aF0.025280044900727237
aF0.022215480829813495
aF0.020670339336141798
aF0.024509917374499444
aF0.02556060109545427
aF0.025215208875753466
aF0.019734108849189816
aF0.02353077816492445
aF0.02590516940678551
aF0.023589096179922327
aF0.020666697489481665
aF0.028388681606451697
aF0.024789152416010377
aF0.023525018670649683
aF0.024631340139361472
aF0.024498112858035926
aF0.021054825932874662
aF0.0249612184459173
aF0.02181607865818387
aF0.023231134795948915
aF0.02341354640899372
aF0.02354979165691272
aF0.020661443527698765
aF0.021812737533110624
aF0.026031628079790013
aF0.023483822774172408
aF0.021576114459216953
aF0.02298691407602293
aF0.02312525989927454
aF0.02434399943821534
aF0.02504315801588209
aF0.023000715885735344
aF0.02185589924060006
aF0.019926988629757898
aF0.023609859773141995
aF0.028271349060338537
aF0.018856181277517762
aF0.01997772518446327
aF0.02537080405932859
aF0.024096106124910074
aF0.020789589053739076
aF0.022371986382269105
aF0.021397479954180936
aF0.0250028938534552
aF0.023344317074302633
aF0.026204544923745177
aF0.022099702415280576
aF0.02673474123926659
aF0.022804542405809786
aF0.028356615770176757
aF0.0209706686266853
aF0.027734365888362696
aF0.02620349226120447
aF0.029450261780104642
aF0.025212797859334213
aF0.024514263056002555
aF0.02621610384810822
aF0.02907874420998449
aF0.023311375023195344
aF0.024678136567876457
aF0.026194109215332623
aF0.028396384644055094
aF0.022552065354964852
aF0.02273204168706716
aF0.026752360843639002
aF0.030694516478853243
aF0.019794738165443734
aF0.026105124774045058
aF0.025471960022209823
aF0.030835559304559654
aF0.023204802586007794
aF0.031375056238308274
aF0.02629749768303979
aF0.029270475203692296
aF0.02367578106865971
aF0.027678319042683436
aF0.02418773402795538
aF0.02872527215263952
aF0.022667808932830064
aF0.029216810831139455
aF0.027142957597918505
aF0.02513301596191537
aF0.020218265364732865
aF0.025939911344606735
aF0.022941245181637603
aF0.023547770997344706
aF0.019910846953937546
aF0.029588588942590994
aF0.02706116243714179
aF0.026873784587989908
aF0.02335867311679331
aF0.026816405330319662
aF0.02423180278069862
aF0.028659519304883963
aF0.02281990466760305
aF0.028289146350131425
aF0.026937046004842553
aF0.024845872155008518
aF0.025131204771923276
aF0.02669414244771305
aF0.024732996065205112
aF0.024372609385203785
aF0.024782116189287225
aF0.027990182195789606
aF0.023594953301654866
aF0.02459685888310652
aF0.0243615746289296
aF0.024654253445725364
aF0.027476789281936708
aF0.023242854157475505
aF0.02562326869806088
aF0.023755310908194587
aF0.02586950943572272
aF0.022169822225304524
aF0.022272842318400352
aF0.02813949655026249
aF0.02559802482938526
aF0.02514448173005214
aF0.02320641004918368
aF0.025086748569820815
aF0.027020090066966825
aF0.025045304586218054
aF0.02616822429906536
aF0.024658423994989388
aF0.021365342726050836
aF0.025578250326431577
aF0.02546269553363057
aF0.025748976553777385
aF0.021427409421552857
aF0.02340717324097528
aF0.024028853001309355
aF0.025813666332735304
aF0.024517572480656228
aF0.02239664855906449
aF0.02407505346179488
aF0.02195427934206853
aF0.02405942192798315
aF0.023388305847076407
aF0.02593805086879873
aF0.023226253755488736
aF0.023720406897976935
aF0.024376141908924755
aF0.02356848373797521
aF0.02140856805610197
aF0.02050082553659874
aF0.022771798004010364
aF0.021298127788766684
aF0.023399558498896193
aF0.02382709784564279
aF0.022421524663677077
aF0.023259566620562416
aF0.027850162866449445
aF0.026645227977489316
aF0.02156178502923431
aF0.021466782497370898
aF0.029164835673150244
aF0.025832034473273983
aF0.020743141567310983
aF0.020180599261184793
aF0.025882189818131337
aF0.025163413630753702
aF0.02228019948282226
aF0.021350861287397955
aF0.026666050466771358
aF0.022749662077023475
aF0.023404107848346872
aF0.024792445944713016
aF0.027015784243488647
aF0.022772818364000677
aF0.022812188159940537
aF0.02212963595382824
aF0.027451889635984168
aF0.023056202346710443
aF0.01997955580336395
aF0.020029100168235302
aF0.03310889250058037
aF0.01991968600403834
aF0.02151736958289759
aF0.022138526547859583
aF0.028128614388156305
aF0.01879014257732424
aF0.02305108305339969
aF0.023598414553119288
aF0.03056798781894516
aF0.020658327246165037
aF0.024075188666141896
aF0.02003011361043934
aF0.02877078730084887
aF0.02151760531343822
aF0.02570646373718151
aF0.019269057372359615
aF0.030490920068738027
aF0.026655970662388204
aF0.029386484540153714
aF0.02149297788437142
aF0.02684330193494495
aF0.023721122112211165
aF0.026279776401549354
aF0.023086493709967227
aF0.024390808857592827
aF0.024438937078342226
aF0.02911653568861991
aF0.026774379688401552
aF0.023980815347721767
aF0.022491031183883674
aF0.026753768380231233
aF0.022373428670280193
aF0.021074961377942722
aF0.021808559175107167
aF0.025696378830083504
aF0.022054233996809714
aF0.02164080439774541
aF0.021762585799224025
aF0.023974427277570536
aF0.020991493643098828
asg24
(lp48
F0.0074909941074027065
aF0.01327455183164455
aF0.008346749226006171
aF0.0010191263953736377
aF0.008033539441633857
aF0.01657207174844932
aF0.008481764206955025
aF0.0015251652262328382
aF0.007353590672202086
aF0.015557988867597372
aF0.006627832308962465
aF0.0017870537881127788
aF0.006951647430097308
aF0.015890562387729686
aF0.00720384818983174
aF0.002258385918299563
aF0.007421562527775292
aF0.016189462972385365
aF0.007415107415107398
aF0.0029074283685109905
aF0.00803535556448371
aF0.014814471887224798
aF0.007108291463104014
aF0.002887413099971119
aF0.008198006495688187
aF0.011694278156758987
aF0.006485084306095964
aF0.0022702991452991403
aF0.009016283138204797
aF0.009570489442263444
aF0.0067000510038484565
aF0.0020756611985269452
aF0.00953342305966799
aF0.009448012659406103
aF0.006978577390336625
aF0.002907171769125829
aF0.00915234514858573
aF0.008565560379031861
aF0.006464618378979548
aF0.004137869332796519
aF0.008554644747716136
aF0.007997185741088162
aF0.00591620253749623
aF0.005406733841238622
aF0.009344749726140687
aF0.007696302941593069
aF0.005954716458559314
aF0.006044325050369362
aF0.009317117964568054
aF0.007858732187662719
aF0.007290991574854163
aF0.005855956921696195
aF0.010035100351003487
aF0.007715245893879851
aF0.008391673234735017
aF0.005580683633745121
aF0.010364449261617644
aF0.007875311486200555
aF0.009357295439769644
aF0.0042356652022079435
aF0.011147615271326586
aF0.007959411655185235
aF0.010705743015721858
aF0.003936742177130893
aF0.011639008865651257
aF0.0076171513243193005
aF0.011132803421187163
aF0.0038935025769135465
aF0.012893232192077239
aF0.008026940997370465
aF0.011514841351074692
aF0.004115318880993064
aF0.013354335022599613
aF0.007281999448681413
aF0.012174721189591049
aF0.004599403199389727
aF0.0151210598446779
aF0.0061397302170588496
aF0.01316554627712774
aF0.004540168187511172
aF0.015671692862194
aF0.0057954545454545325
aF0.012411965692768954
aF0.003524032563845202
aF0.014656834940442395
aF0.006448839208942375
aF0.012277044243687717
aF0.002844344904815223
aF0.014097574221578533
aF0.0071204849140359015
aF0.01176198729058345
aF0.0028606180737003268
aF0.0140222733216105
aF0.007125729538976593
aF0.012035692052292978
aF0.0033116312599968385
aF0.013581771242563668
aF0.005713382412718473
aF0.01175252989880402
aF0.0031982702313115086
aF0.012013960356168033
aF0.0061905515013216915
aF0.011011148501705443
aF0.0033076074972436527
aF0.00894274408102124
aF0.004804669959586877
aF0.009848952263430886
aF0.0027908638281720893
aF0.007273948075201416
aF0.003964432100701046
aF0.00896196296634131
aF0.002396538333518246
aF0.006671474936891438
aF0.00360356327498992
aF0.007876352677959893
aF0.0021517302573203145
aF0.0073586016392700095
aF0.004820303567024628
aF0.007631843524357902
aF0.002755065766086023
aF0.007614328575325012
aF0.005326472115015674
aF0.006945396390221597
aF0.0031599092082424604
aF0.00877812991632274
aF0.005886081680702694
aF0.007702152946016346
aF0.004146325152143374
aF0.009285877253023022
aF0.005949542430229111
aF0.008571232657539236
aF0.0049312745448054154
aF0.008787346221441105
aF0.006592856980471488
aF0.008249920014625878
aF0.005182041545677898
aF0.00797805463481539
aF0.00812364228819694
aF0.008294299097452282
aF0.005627298000179343
aF0.007001299915619496
aF0.00947085282882392
aF0.007966121094197075
aF0.006793692214248742
aF0.006563653767263761
aF0.010091660270013974
aF0.007657915854637148
aF0.007841369986480379
aF0.006524506683640978
aF0.011496844003606826
aF0.007632363052945203
aF0.007150268417016269
aF0.005512954308271687
aF0.01146514099635917
aF0.007843856792275387
aF0.007753164556962008
aF0.0056650804441422935
aF0.00993136675605652
aF0.009633911368015391
aF0.008137984040509057
aF0.008312570781426934
aF0.009089049967052173
aF0.010698004719034176
aF0.009660852055476347
aF0.011102551320976999
aF0.009742329053992511
aF0.01252805643351195
aF0.01120289691071628
aF0.012458019424525704
aF0.008823194997157455
aF0.014202459618208483
aF0.011658382286488902
aF0.013645268577156103
aF0.008909037598394098
aF0.013347705433112369
aF0.01197186274067725
aF0.013845802919707996
aF0.007919592578466767
aF0.012295081967213087
aF0.010990739908298096
aF0.014012420099633735
aF0.006677535341804929
aF0.010425497788877917
aF0.009472077572275073
aF0.013633884748227564
aF0.005653112550354976
aF0.009420123768049486
aF0.008444205527930815
aF0.012811484905617489
aF0.005473562912733224
aF0.009801451897313738
aF0.007517787622499647
aF0.01302361524649405
aF0.0057151717874310394
aF0.011414585048952302
aF0.0061224945813688324
aF0.012313424358770447
aF0.0054831620307678524
aF0.011120479456737208
aF0.004954914739755368
aF0.010741408013865741
aF0.005846913141104008
aF0.01006155034182014
aF0.0038977237293420556
aF0.010297247202581152
aF0.007021286050748773
aF0.010643850849919409
aF0.003915984336062647
aF0.010528479422646484
aF0.009340182800720508
aF0.01056425834825778
aF0.003935257236871351
aF0.010035891456918798
aF0.011633856078300496
aF0.00899008380203743
aF0.0047229428590434275
aF0.01131092475378742
aF0.011519206060874547
aF0.008345362684951263
aF0.005010753164977928
aF0.009775995260123488
aF0.013128473067811966
aF0.008188770330934583
aF0.00538265588658765
aF0.009301692454285563
aF0.01180859047366792
aF0.008553953099961611
aF0.0064309392265193225
aF0.008834200978072231
aF0.011380177319041923
aF0.00810609984012968
aF0.007278662490625949
aF0.008753274082697153
aF0.010361440482213937
aF0.008199483320229118
aF0.007677543186180405
aF0.00930139186295501
aF0.010679590359860505
aF0.007613529173965756
aF0.008576860161810848
aF0.009548398584433196
aF0.011457167314150234
aF0.006459017869199247
aF0.008720093840603748
aF0.010685145858947108
aF0.011758747495210596
aF0.005605279811951891
aF0.007701725097384512
aF0.0126126936307021
aF0.011298441518475345
aF0.0062827462632402496
aF0.007351791021429672
aF0.013496710600682717
aF0.010208776042237145
aF0.006196940118944917
aF0.00568105569223886
aF0.011923652355261341
aF0.007189056900620559
aF0.006753530254451175
aF0.005340543439399345
aF0.00949166364624862
aF0.006222475405885046
aF0.007691082440212056
aF0.0054953646822294075
aF0.008037129273262377
aF0.005054295047232265
aF0.008144362823379093
aF0.00571199071801507
aF0.007623773542348015
aF0.004083454200602467
aF0.007609067091923892
aF0.005372748350276428
aF0.007741615131133463
aF0.004575060287124463
aF0.007001432111113621
aF0.004954472415640053
aF0.00865215627957278
aF0.005883417813178842
aF0.006026014189557926
aF0.004827894501564584
aF0.009488393058372752
aF0.007341646335953719
aF0.005092297899427105
aF0.005945064032362591
aF0.01037835886560023
aF0.008430638835038978
aF0.004800910125142196
aF0.006092933982055961
aF0.01046341188409063
aF0.008292989062219813
aF0.005666947358838377
aF0.00636333296250972
aF0.01226105644157898
aF0.007519298792017958
aF0.008748148991912499
aF0.006139864789981146
aF0.014679441953617482
aF0.007009138497027755
aF0.009523375558188258
aF0.006172291296625208
aF0.015437940391763355
aF0.006247784473590911
aF0.010786946429384164
aF0.006173387813110663
aF0.01476402696834644
aF0.006428872287126723
aF0.010767099016423209
aF0.005156816110604803
aF0.014574067738624666
aF0.006240456748323693
aF0.010171027296409537
aF0.004024994996553172
aF0.013958898797983682
aF0.006006006006005992
aF0.00914855072463766
aF0.0031141560637067286
aF0.013481146923971775
aF0.005119830515955322
aF0.00806195932786809
aF0.003433514670471766
aF0.012338626756540585
aF0.004715101607119129
aF0.0069461784668467365
aF0.00314290172302342
aF0.013271400132713971
aF0.0038332107597334494
aF0.00689702267140124
aF0.0028704301194899915
aF0.015022050716648257
aF0.0038031319910514453
aF0.006462182579412018
aF0.002848305480762805
aF0.017882755748854815
aF0.004325317675533931
aF0.006372760998702673
aF0.0032541345339455194
aF0.020129086181277813
aF0.006186587478346929
aF0.00642032648043165
aF0.003233503556853905
aF0.021102457678496427
aF0.008704892828072694
aF0.007282772476142625
aF0.0036622674795113914
aF0.02132375242050248
aF0.009510838724321848
aF0.007576104371709756
aF0.003984420468281318
aF0.02087750774751259
aF0.00997817983453039
aF0.007659222117441388
aF0.004570609190509254
aF0.02020789247261814
aF0.010615517791243312
aF0.007670160082920632
aF0.005909609831441797
aF0.01919105191098318
aF0.011182981824807517
aF0.006953687979070072
aF0.006893001812769942
aF0.018256282104678563
aF0.011967873313462692
aF0.006398789046374005
aF0.007188000712123894
aF0.016646712101676144
aF0.01205449541701728
aF0.00573171011302931
aF0.0077380160525031974
aF0.014615930906508407
aF0.011837411673823616
aF0.00612305513034338
aF0.007437998179355653
aF0.012977221321026267
aF0.011769765283719218
aF0.0061481498411537355
aF0.007088731361525284
aF0.011199635784202114
aF0.011972117865387199
aF0.006448219879724678
aF0.00694011922768928
aF0.00884412513641322
aF0.010942799005200066
aF0.006309148264984212
aF0.007361444711324598
aF0.006731403361153419
aF0.009600397569405205
aF0.005571285048862897
aF0.007936507936507919
aF0.00654664484451717
aF0.008402036311213208
aF0.005886799367798965
aF0.007952773446201808
aF0.006959132155284148
aF0.008752833449289654
aF0.005453212354504616
aF0.007933324419485653
aF0.007864379121999845
aF0.009284384741315491
aF0.0062168796311165
aF0.007190080804932869
aF0.007910962009248327
aF0.00940986691759643
aF0.006815167177423027
aF0.006902540580258718
aF0.007921735972398748
aF0.008852730899392616
aF0.0065712916695187746
aF0.006749659164562039
aF0.008795454545454525
aF0.00969127335686819
aF0.006244160342745137
aF0.0068956253078404
aF0.010196167883211656
aF0.010590594650623017
aF0.005968109339407731
aF0.007800031469867584
aF0.012153333028738493
aF0.009665310526197466
aF0.005149823402073589
aF0.008836590699037422
aF0.012772265936822869
aF0.00934516606158395
aF0.005328354130612976
aF0.009110021023125418
aF0.013963553530751675
aF0.009614953606167893
aF0.0051806407634628375
aF0.009141512422500771
aF0.014227135769465996
aF0.009550991055777766
aF0.005845038513819651
aF0.008332198156472759
aF0.01341857365531883
aF0.009105866973200781
aF0.00732459521973784
aF0.008015528659511285
aF0.011765499865022918
aF0.011108340323275347
aF0.007972639351317052
aF0.008172823067563515
aF0.010926258992805731
aF0.01240486197887081
aF0.00792159880497022
aF0.007758362686189175
aF0.009356488960689262
aF0.012684365781710885
aF0.007204155374887065
aF0.008087557603686617
aF0.008887595424119616
aF0.012447757822207133
aF0.008210402851084927
aF0.007496148451332504
aF0.009267135246452054
aF0.012534379367870479
aF0.008658399098083407
aF0.007143347757400904
aF0.01007821229050277
aF0.011862422905505758
aF0.008460046022650344
aF0.007638650657518564
aF0.011000780988508287
aF0.011316849281166308
aF0.00845771144278605
aF0.007352605379732366
aF0.011385961778889061
aF0.010814934482139627
aF0.00849343688967614
aF0.007213294375456521
aF0.01055450184090146
aF0.009856070087609489
aF0.009018446823047121
aF0.0075612644620570105
aF0.010771113831089326
aF0.008817751584962922
aF0.0088310269482884
aF0.007604996916893124
aF0.010514382252256234
aF0.008232748042212338
aF0.008893437962015218
aF0.007032252153197712
aF0.01064820976973244
aF0.008520699500356868
aF0.008321207711895215
aF0.005914708522243433
aF0.010486558542546077
aF0.008780553197193779
aF0.007833965348895279
aF0.0053950614437553186
aF0.01025185842671694
aF0.009984587549420335
aF0.007851145904243231
aF0.0059149722735674535
aF0.009059419131361556
aF0.013108446671438767
aF0.008714399183025056
aF0.00695535631758941
aF0.008653398122878233
aF0.01520266493773611
aF0.010188069952015986
aF0.007534310089020754
aF0.008634658498146526
aF0.014149890639646443
aF0.012067982205999743
aF0.009155764180977367
aF0.0098235765838011
aF0.014819932251738244
aF0.01503845188379997
aF0.010556109783541724
aF0.010958353791902846
aF0.014348514939861168
aF0.017184718608790867
aF0.009743197160553947
aF0.013740185581727307
aF0.013038042507590612
aF0.01905653057032654
aF0.008889300430575469
aF0.01593421287216969
aF0.01125452190612297
aF0.018350712626929513
aF0.007853826430435869
aF0.018414767527510506
aF0.010348998700775032
aF0.01801535062746255
aF0.006977065487703769
aF0.0198835107451295
aF0.009638554216867448
aF0.01679257304086644
aF0.006653512595787623
aF0.01973654833668225
aF0.009186322085543371
aF0.015663418632182825
aF0.007085998251506909
aF0.019439794665773866
aF0.009578153658039512
aF0.012385101384485522
aF0.007342076099002569
aF0.018312812276944996
aF0.009418723694687728
aF0.00889842110066622
aF0.009173886855395429
aF0.016993755575379087
aF0.008869735732038194
aF0.007811610376004901
aF0.010752688172042986
aF0.0150444851790584
aF0.00771478133844607
aF0.007548370961507838
aF0.011752955659303621
aF0.013250212271528772
aF0.0107077625570776
aF0.008461695515074502
aF0.012169299858063587
aF0.013404465166322932
aF0.012379296142052966
aF0.009527034654024134
aF0.01141966694576237
aF0.012863396565271044
aF0.013941263855559332
aF0.010314386091343098
aF0.01102574220654114
aF0.01321012851279518
aF0.01484594477308541
aF0.010396741454193554
aF0.01133381331723062
aF0.012301061752227855
aF0.01485836694697018
aF0.010061360765204813
aF0.01110570123577007
aF0.012143195079640408
aF0.016188239585945834
aF0.009396368247067858
aF0.011612813499605926
aF0.013119566444620045
aF0.016685714285714248
aF0.008354086484038922
aF0.012234399981463001
aF0.014546523991584247
aF0.015940830576993716
aF0.00886396526772791
aF0.012096493870646277
aF0.016704339963833595
aF0.014156835530881299
aF0.009982158585333882
aF0.01240694789081883
aF0.019713342677578287
aF0.013515721655500797
aF0.010910484434525797
aF0.01229764468839016
aF0.021187013103976176
aF0.013080919174427824
aF0.011595245050672992
aF0.011237773718408187
aF0.01892539586552886
aF0.012924598730869697
aF0.011734028683181198
aF0.010663644144248315
aF0.017552086822536304
aF0.014500849568233096
aF0.01106919933539896
aF0.00969932104752665
aF0.01756226010889936
aF0.015703036075170117
aF0.010548096169849063
aF0.008561209184262123
aF0.015443326117520998
aF0.018059424326833756
aF0.010150223304912685
aF0.008594201224442627
aF0.01278532699645221
aF0.019763395963813452
aF0.010007018497135978
aF0.009581337221412183
aF0.01208236555297478
aF0.01914119528190388
aF0.009055832955061259
aF0.00976096079386054
aF0.012126907414865502
aF0.017734830838772128
aF0.009104325122034263
aF0.010401738246035757
aF0.012819652325659412
aF0.016010335201974726
aF0.00799259443227742
aF0.009892334590963444
aF0.012641204948897228
aF0.015062318907234477
aF0.008354293927416438
aF0.009210466022086767
aF0.013983651962440015
aF0.014825762649239047
aF0.009443039674192733
aF0.008057501258984552
aF0.015558922635066339
aF0.014677669139911668
aF0.009600142885847582
aF0.007943957326984254
aF0.016928740229049225
aF0.0142449481474607
aF0.008985707596601911
aF0.008098462664714475
aF0.01818761239216039
aF0.014026191528459412
aF0.007929613542710752
aF0.007514846962083125
aF0.017576655648010902
aF0.012895309533731506
aF0.005693823535953369
aF0.005769274622032687
aF0.01727679386525466
aF0.011522595810384137
aF0.0034213858834507044
aF0.005178510322801403
aF0.014069460860078157
aF0.011294268273165799
aF0.002570978966732413
aF0.005924980629871004
aF0.010943104935748965
aF0.014035327947418836
aF0.0021727562965590586
aF0.007556101779780582
aF0.010401019618553392
aF0.01564813338496227
aF0.0035535024208235163
aF0.007849650747423248
aF0.011290212881724791
aF0.015967339532773836
aF0.0046777894103757715
aF0.007471356005557942
aF0.010973658712454063
aF0.014464584369208482
aF0.005517580306482586
aF0.007062534284146994
aF0.011279962400125307
aF0.013240999729315138
aF0.005972544125512556
aF0.007693012180602601
aF0.012134078212290475
aF0.01217226349901761
aF0.006227261567305746
aF0.008913597831330815
aF0.013324077391615877
aF0.012856723230223438
aF0.007334361932872683
aF0.00910327026341866
aF0.01331808703840718
aF0.014262391728266259
aF0.008431175220843098
aF0.010997152316347531
aF0.01395484931013524
aF0.017182599209054916
aF0.008975017302583087
aF0.01213964068520493
aF0.013194397455849487
aF0.019197008732131007
aF0.007948202723822264
aF0.014126394052044576
aF0.013668350775893148
aF0.021721179870636216
aF0.007947670394927761
aF0.015586165245871138
aF0.014419075469575942
aF0.02150587258001241
aF0.008266124528048953
aF0.014742356459052839
aF0.013485523886712564
aF0.02001479153184797
aF0.008095631035482486
aF0.014238747916280759
aF0.012416492340913663
aF0.019318181818181773
aF0.008453837597330347
aF0.014230271668822734
aF0.011052584188726788
aF0.0170914333550367
aF0.00949353017030546
aF0.01409817879264118
aF0.010246593852043665
aF0.01552643217951997
aF0.01097728989822672
aF0.01276929826586923
aF0.010790311293708638
aF0.01648043386787597
aF0.01216934748270259
aF0.011995285090253514
aF0.011439014484905889
aF0.015410597424530256
aF0.014717723897289042
aF0.01045763731433064
aF0.012121760369080437
aF0.015363325045738107
aF0.017235955056179735
aF0.00909680107402433
aF0.011311088947320674
aF0.01633130556855401
aF0.018592806274226947
aF0.009337565745267477
aF0.012459998638251486
aF0.016529505283830504
aF0.019284989286117018
aF0.010267225994854775
aF0.012773888535321362
aF0.015432026708379017
aF0.01892245856478341
aF0.0122825684678016
aF0.01407489938379678
aF0.013180876085792102
aF0.019072398190045206
aF0.012741205798171885
aF0.015543453596550906
aF0.011469484220770166
aF0.019228152918234955
aF0.012512097331674242
aF0.015571599936627174
aF0.011324766571137996
aF0.018966808085849718
aF0.013653136531365281
aF0.014870140126813603
aF0.011182329613575553
aF0.017655335179049568
aF0.013879282519481685
aF0.014481003535797097
aF0.012192036070023666
aF0.015595559692174943
aF0.01331680213068831
aF0.014336917562723981
aF0.01309062564478779
aF0.01277434259699664
aF0.013260655474887173
aF0.013161749791530473
aF0.014488454869033461
aF0.010784047748236545
aF0.01376588812921577
aF0.011788306360726655
aF0.01418181818181815
aF0.010271658332207032
aF0.012819040180109782
aF0.012045475051881232
aF0.01529489186919914
aF0.00984790703934674
aF0.012769573505431632
aF0.01490339969649608
aF0.017850248677128477
aF0.009678573025168738
aF0.011580350167731235
aF0.01668409328544798
aF0.01891898037610565
aF0.008715083798882662
aF0.012276144279178803
aF0.01688589504346635
aF0.019897552646556585
aF0.007237635705669465
aF0.013544900540416203
aF0.0162402923709456
aF0.01823729124610016
aF0.006962322863730983
aF0.014212123999632014
aF0.01513350402340889
aF0.01545299617705307
aF0.006462325539649045
aF0.01504036060069449
aF0.01361103498675433
aF0.013542820228866709
aF0.006185844278094029
aF0.01503102735003444
aF0.014327105149088554
aF0.014406838078169126
aF0.006188895865099995
aF0.014800854956217933
aF0.014576463899943116
aF0.01698572281136662
aF0.005895671277096537
aF0.014361213235294084
aF0.014418149101428116
aF0.021333761998805812
aF0.00546411376105698
aF0.013838041951601359
aF0.014115611410878096
aF0.022278643152862546
aF0.00574417201224826
aF0.013979732842008258
aF0.012569736991916172
aF0.021268315018314967
aF0.005312144276052931
aF0.014541257934218085
aF0.011701375424830612
aF0.019249322368723253
aF0.005355469272995034
aF0.014523014105419417
aF0.01192243564853936
aF0.016657895338992708
aF0.005715944358854119
aF0.014013478968161715
aF0.013093252290747861
aF0.014489777290982076
aF0.00541471818853063
aF0.011567406856824279
aF0.013532015882433449
aF0.013311791744413567
aF0.004518173848540013
aF0.010242150388135765
aF0.014071315987847468
aF0.011471321695760572
aF0.00491444802633061
aF0.010136461243621395
aF0.014918574194283076
aF0.011453485745267222
aF0.00737406410459407
aF0.01014105282566606
aF0.014982380356939832
aF0.012181066238785029
aF0.00951216197852967
aF0.010216290842153681
aF0.014686491156276963
aF0.01226661856228012
aF0.010442622208127552
aF0.01093800266556365
aF0.015381109718582623
aF0.012071256446636461
aF0.010355063104706205
aF0.011681707819872619
aF0.016463540118445988
aF0.010565121611293417
aF0.01023186169971412
aF0.010730838603621062
aF0.017669302165692638
aF0.009108082579948704
aF0.009355769012421352
aF0.010163248601700672
aF0.017873920117326202
aF0.008235716529778716
aF0.00800362770660921
aF0.009118059640707703
aF0.018447559828373407
aF0.008327893943145225
aF0.007387097505155089
aF0.008108230192429289
aF0.018793206061438403
aF0.007462352097525978
aF0.0070492769391178045
aF0.009140601964208739
aF0.017996619924176636
aF0.006020201119311453
aF0.007218664433934495
aF0.009529671933064292
aF0.019036749600547777
aF0.005814993737699038
aF0.007512181916621531
aF0.008657413769410451
aF0.018189702391820297
aF0.006370850564434992
aF0.007933817047535074
aF0.009036560128765213
aF0.016062602965403586
aF0.00804114912063968
aF0.007559981892258923
aF0.010321895349374196
aF0.015314674075264585
aF0.009267861593890894
aF0.006437427748940303
aF0.012166859791425231
aF0.015272811166224443
aF0.010311395003992219
aF0.006026699415523854
aF0.014087126319215179
aF0.013382641858315003
aF0.00978185993111364
aF0.006339324259844115
aF0.015445184736523282
aF0.013547508597013517
aF0.009679649688868381
aF0.007286677411300008
aF0.01723856399729404
aF0.014512116465493378
aF0.00914380714879466
aF0.00760085311067748
aF0.017107418675403656
aF0.0159863632175435
aF0.008941567893532938
aF0.008967897198383487
aF0.016912127404693073
aF0.01696788304362837
aF0.009559078810322856
aF0.01059245146071491
aF0.016198805661353233
aF0.01599336298481318
aF0.009440982234210749
aF0.011028996316134403
aF0.015779324616687008
aF0.01667203979182974
aF0.009253000815755717
aF0.01214711506017318
aF0.01573393631053322
aF0.019201140570745234
aF0.010595041706359323
aF0.011762853672799218
aF0.016360640301318227
aF0.021551230024990205
aF0.011337763115096855
aF0.012629394916668518
aF0.01901158555213494
aF0.02207328789057134
aF0.012139077151610778
aF0.013966859833393666
aF0.01885201751715412
aF0.021719848074779908
aF0.01428670825892336
aF0.014568512920748166
aF0.016317777052543204
aF0.021536089952847247
aF0.016141358467844615
aF0.014256758295565797
aF0.01369863013698627
aF0.020346339919518876
aF0.016704736854248826
aF0.014036531559335175
aF0.01248049921996877
aF0.020136511031996145
aF0.01665551685159977
aF0.013854164277358501
aF0.011401977894124464
aF0.01895066918130378
aF0.015001382615909265
aF0.013993566176470556
aF0.011841064532638505
aF0.020768078442053608
aF0.01580177220461325
aF0.014312297548760563
aF0.010921596876888016
aF0.02241653418124001
aF0.01696523630977175
aF0.01453561684664233
aF0.011745627244295119
aF0.023371908327660486
aF0.017369040204830075
aF0.013514130484408497
aF0.011448701012769678
aF0.024872796656369194
aF0.016425209928947086
aF0.011364154990643943
aF0.012039249344684377
aF0.024650930095056114
aF0.016088823230691066
aF0.0100262048535946
aF0.012232415902140643
aF0.023883862439891466
aF0.014401627407013536
aF0.009556827771822162
aF0.011789229878401825
aF0.021838241998723393
aF0.014217459875684168
aF0.009735300152755273
aF0.011501154734411058
aF0.019053472649047283
aF0.013551836355183604
aF0.011055390927741028
aF0.012249417518281824
aF0.019220684466130053
aF0.015819605094053005
aF0.013430902438470073
aF0.01087081692346666
aF0.019938475561125622
aF0.017487366318016177
aF0.014630494941704816
aF0.010275862068965493
aF0.0221020938825783
aF0.020915557866376715
aF0.015120648286477398
aF0.011583989682649322
aF0.02330132435261452
aF0.022843844984802377
aF0.01612025574751731
aF0.013762102351313938
aF0.024435621100396994
aF0.024332231287015615
aF0.016997682134254382
aF0.014520813165537235
aF0.026162526162526102
aF0.02586616041765537
aF0.016268313244776556
aF0.01418717848162584
aF0.02528609607345982
aF0.024686974839641114
aF0.015364916773367442
aF0.015150465368715177
aF0.023281978279337763
aF0.025102919604410103
aF0.014637270149117155
aF0.016675146861556925
aF0.02038841661483166
aF0.02443404697764539
aF0.013699255673775026
aF0.015976290259093712
aF0.018358581193423196
aF0.024535368860231308
aF0.012590092144877264
aF0.014670548008501953
aF0.016846392372842096
aF0.02672843905915888
aF0.010094335323337715
aF0.013781659791200909
aF0.015537673059530122
aF0.02616857874277039
aF0.008840483948141882
aF0.013672233437327918
aF0.017072377589891254
aF0.02485487501480861
aF0.008809670149559495
aF0.014033002696896252
aF0.019061992105874115
aF0.024307931937790517
aF0.008596379514236313
aF0.014561106277759937
aF0.021073862846014695
aF0.025201160952358418
aF0.008988355993372202
aF0.015693472524951207
aF0.022701528076380647
aF0.026936661172592354
aF0.010390021957126988
aF0.01627174737422717
aF0.024443827760048043
aF0.02658948656407354
aF0.01156030286641425
aF0.014700477765527345
aF0.02750046219264183
aF0.02580872011251752
aF0.012947311634598065
aF0.013899720170649997
aF0.028222078402366797
aF0.02415016327201817
aF0.013646668013377295
aF0.016166440857005037
aF0.026518748407717008
aF0.024709336465061595
aF0.014158458051921794
aF0.017496388360200836
aF0.025197651301493307
aF0.02608145474996479
aF0.01537596942789701
aF0.018765771966047215
aF0.02274770103021498
aF0.025596832421101605
aF0.01572227736172513
aF0.01815094426214457
aF0.020014706558205753
aF0.02536156427166487
aF0.016718533493855447
aF0.016998665869255147
aF0.02014997469752031
aF0.025636883884068613
aF0.016586921850079706
aF0.014914037146999896
aF0.018959638776262396
aF0.025437422095009404
aF0.015856742532977888
aF0.013083638541450686
aF0.020608303457846602
aF0.024400962161161936
aF0.0144084991906618
aF0.01077451953025861
aF0.021708342039887574
aF0.02501622924974491
aF0.013318433715706143
aF0.01210207233581519
aF0.023141344157510384
aF0.02370428956918204
aF0.012358910044464684
aF0.014144887666208129
aF0.02426310745424365
aF0.023678735887426604
aF0.012004829267181457
aF0.014414085663458434
aF0.02577005898324121
aF0.02418184371927519
aF0.011595061278418124
aF0.013674008008736771
aF0.027243552203143603
aF0.025580904593308106
aF0.012663994169096181
aF0.01295042486481571
aF0.029937873637322632
aF0.024074420344053795
aF0.013372145911034264
aF0.012528370403994524
aF0.03186839012925962
aF0.023146634278506974
aF0.01447532614861029
aF0.011566986459821706
aF0.03198092945313783
aF0.02259067842192647
aF0.014439121847117818
aF0.00995622887986753
aF0.03221917549167919
aF0.021772720887765083
aF0.014593735814797969
aF0.008018535765395343
aF0.030094460530687733
aF0.01955904106694212
aF0.014236811679626364
aF0.006828269033799916
aF0.02644104907420623
aF0.02053957510810298
aF0.012795543074553824
aF0.006508283269615859
aF0.02496311455904044
aF0.018662409915725677
aF0.011905568733762539
aF0.008080302271589183
aF0.02602221640779233
aF0.02056131931211325
aF0.01092846820809246
aF0.010366117604173762
aF0.027478384460499754
aF0.020752544125596323
aF0.011163483006698064
aF0.010715101667808976
aF0.028133777053978078
aF0.021259083319615218
aF0.012707082562181166
aF0.011840417735434197
aF0.02757275163367959
aF0.020758567307015644
aF0.014747397186024944
aF0.012994751678775208
aF0.02515218724930389
aF0.020584235945046138
aF0.016670808014637745
aF0.014550294907396748
aF0.02300638804422124
aF0.020357775086182753
aF0.017816014090231636
aF0.016417910447761155
aF0.021266061534834322
aF0.020809248554913246
aF0.019871142760257667
aF0.018721251149953957
aF0.02186166073155196
aF0.022009613394356104
aF0.02144602298434526
aF0.01991867116961881
aF0.023243192222379482
aF0.024730515525523397
aF0.0211893214884648
aF0.019011669390291575
aF0.022732632174692204
aF0.0270896412514909
aF0.019831635315740465
aF0.017970011534025332
aF0.02281144582576485
aF0.02630306101296721
aF0.01787092965166443
aF0.016073452207497823
aF0.024636481853646943
aF0.02399019108869656
aF0.01672908863920096
aF0.015366157537723189
aF0.02798710839376267
aF0.021965452847805735
aF0.01593326666060547
aF0.015658821903928484
aF0.028781777894260254
aF0.02042831284233287
aF0.014665090264198957
aF0.017472255342566224
aF0.02815858609983275
aF0.022139438379742006
aF0.01519929221206412
aF0.019452859843739276
aF0.02480032619384543
aF0.02276732219637691
aF0.015435451747238784
aF0.01932148040638602
aF0.022570442783208685
aF0.02253020777338906
aF0.01684581338632459
aF0.01904244973652663
aF0.022927015666793983
aF0.025123750817222318
aF0.01739972088416689
aF0.01682681463436636
aF0.023695210796608086
aF0.02668346045296567
aF0.016972744825108847
aF0.014194591680891173
aF0.025878136200716783
aF0.025456583679760787
aF0.01476916181084712
aF0.011397223466188957
aF0.027866682709661826
aF0.02391962629985206
aF0.013842771246522449
aF0.010033145211860588
aF0.029790621381705833
aF0.02236497177809786
aF0.014291501620453693
aF0.010422737257363136
aF0.029823922282938602
aF0.021288235573949807
aF0.013511991892804833
aF0.01116954332973748
aF0.027930782354374777
aF0.020868153383314977
aF0.013019246824161165
aF0.010631334221158813
aF0.026575235492215268
aF0.02121306227753751
aF0.01244436370242526
aF0.00985823139711034
aF0.028487038031538278
aF0.022669182810596416
aF0.012517956084547477
aF0.010917968308506044
aF0.03241228822909252
aF0.023972848299433483
aF0.014054300707278087
aF0.012503674226151416
aF0.036760384012539095
aF0.024953524953524892
aF0.015838913903046613
aF0.01470654780759307
aF0.039732011387061845
aF0.02427566471920824
aF0.016743781208484087
aF0.01490306214893999
aF0.041674857479850495
aF0.026972788303031684
aF0.016513719266772427
aF0.014611872146118688
aF0.040127858372264465
aF0.029042951859325383
aF0.01811233352634622
aF0.01477311889718549
aF0.03855669598020714
aF0.031091584994930643
aF0.02151164145710485
aF0.015627885503231728
aF0.037821186710021173
aF0.029646660212971854
aF0.02353845079276379
aF0.015343315359514902
aF0.038054244417813986
aF0.029474656169509575
aF0.024843126734936608
aF0.015856848538160568
aF0.041003223600664156
aF0.031670471656870765
aF0.025167198750961187
aF0.017554395528248678
aF0.04457572502685274
aF0.032337161030322074
aF0.024833321718121994
aF0.019162919405050112
aF0.04611056751467699
aF0.03287485798544796
aF0.024386845039018893
aF0.01899942495687172
aF0.04598993206588132
aF0.033031804840494554
aF0.02358194376613404
aF0.019637636116674677
aF0.04425752500183377
aF0.032795931097356096
aF0.022168348912562013
aF0.019353354044413715
aF0.044663915094339514
aF0.03177793730557542
aF0.019971602150787877
aF0.01968558388271629
aF0.04362125670763361
aF0.031144519187034612
aF0.01870530410678092
aF0.019156823467108702
aF0.044768686818385424
aF0.029902160132047866
aF0.017035775127768275
aF0.018232463914915127
aF0.04368361864300876
aF0.0275363710568012
aF0.01705075573801078
aF0.01736479933496509
aF0.042300760913095606
aF0.02666762679724436
aF0.015265043980080942
aF0.016435185185185146
aF0.04270017270292583
aF0.02601571483326939
aF0.01619451984872737
aF0.015518397742778474
aF0.04398015408013153
aF0.026127981607433598
aF0.01761238876690161
aF0.016069078567635547
aF0.04073026740090281
aF0.02731072252113752
aF0.018128492910258143
aF0.017246952345770186
aF0.03942236484818554
aF0.028666778708794437
aF0.01713798034783407
aF0.018176352241981317
aF0.035798237022526845
aF0.02943227450886087
aF0.01750086695179744
aF0.018404198746849742
aF0.0358254694036384
aF0.031883918473421966
aF0.018677961394250753
aF0.017856729812874384
aF0.032744736586785596
aF0.03151724800614963
aF0.019087869217908185
aF0.018595518595518553
aF0.0295953925079856
aF0.029384889145385396
aF0.018878013623788114
aF0.019209379923996617
aF0.028767057001838698
aF0.02749571886833403
aF0.018253542167549732
aF0.018645525771278405
aF0.02716472690394546
aF0.02722975254449851
aF0.017547958969086577
aF0.020326054094281214
aF0.026696516694350095
aF0.027130568874539122
aF0.01711279953243713
aF0.02113640054755105
aF0.027426566030479237
aF0.02797844838000428
aF0.017971217971217927
aF0.02152260221494736
aF0.03043635052289931
aF0.028592233009708666
aF0.019034495644253406
aF0.019809788912085315
aF0.03150494289279194
aF0.03001752848378608
aF0.01674680045525279
aF0.01890595676652529
aF0.03464010129243404
aF0.03307397741408319
aF0.016237596280618934
aF0.01710112775004618
aF0.03582039884956375
aF0.03388343124588637
aF0.01627762000415595
aF0.014847827090934247
aF0.035974973931178225
aF0.033679259007807494
aF0.016376024945143744
aF0.013558224011475871
aF0.038832649771223915
aF0.03305188713285696
aF0.01732323583223322
aF0.013832799517244547
aF0.04266389177939636
aF0.03329729729729722
aF0.018165325394241014
aF0.014424752038280145
aF0.043187879073938486
aF0.02982150111113759
aF0.017339828000093184
aF0.014594143810229766
aF0.040003767276494455
aF0.029349355077128412
aF0.01664293550570711
aF0.015051090858878728
aF0.03560204512406765
aF0.029739599493997113
aF0.016535488240652037
aF0.015363128491620076
aF0.03358121696833629
aF0.029294210564104948
aF0.016434007189878107
aF0.015091668759560686
aF0.03627959097912865
aF0.028622153979031142
aF0.01825314790452918
aF0.014351451091165852
aF0.03947521730011875
aF0.026915860874585012
aF0.021318743514762706
aF0.014158566843459027
aF0.041413081497026834
aF0.02733660602560394
aF0.02265785922295612
aF0.013594616713649145
aF0.04489852978867158
aF0.03132082750638947
aF0.023855729635064077
aF0.013270421704511913
aF0.043917976378684914
aF0.03412516580248394
aF0.023199716211422434
aF0.013538028935552601
aF0.04100227790432792
aF0.033595218585819556
aF0.023209501908442134
aF0.013552847007458582
aF0.03908559722513202
aF0.0343954878519089
aF0.024154014563799855
aF0.014108300611816239
aF0.036408049319529984
aF0.03482503364737542
aF0.024170265562740035
aF0.014098644887530196
aF0.03593204561321844
aF0.03494436299838968
aF0.027670912088699783
aF0.014495400278494271
aF0.03485560154397053
aF0.03551289742051581
aF0.029635294679986546
aF0.015505469160329712
aF0.03397461186790737
aF0.03379445694318119
aF0.031428503142850235
aF0.01530146857611964
aF0.034387544376638664
aF0.03123510912036588
aF0.031298493566022795
aF0.015499817916970103
aF0.033224665325657134
aF0.029124139568003728
aF0.02740149246637191
aF0.016062070373647278
aF0.031901387317928874
aF0.027386857156418285
aF0.025026118339823284
aF0.016729676499218943
aF0.031146332473276743
aF0.02330528505247229
aF0.021872701824306638
aF0.015568158709356676
aF0.029386065762244125
aF0.02158120666069149
aF0.020003796687390205
aF0.01266421795074022
aF0.028509629765986266
aF0.021525171705728194
aF0.019812526629740045
aF0.01308204989642436
aF0.029105307029730413
aF0.023030045351473866
aF0.019460300985988537
aF0.014492427481603135
aF0.030687731908240107
aF0.023553796872055718
aF0.02046583924071496
aF0.014970396884356463
aF0.03417135062674905
aF0.02457297679349741
aF0.020685760007530602
aF0.01600666381503407
aF0.03667069902037516
aF0.023698027529445095
aF0.021761169397618716
aF0.016373505101236422
aF0.035511702178368756
aF0.024525693583754348
aF0.021301691396758696
aF0.01747716946331365
aF0.03545879435330018
aF0.02515647857262758
aF0.020934243791791648
aF0.01840090090090086
aF0.036381818614728834
aF0.027541660663689124
aF0.020734597156398055
aF0.01771769060623839
aF0.039577962379451825
aF0.03194044188280492
aF0.020355750023780032
aF0.01674798592987628
aF0.039072737235841995
aF0.03515859846571908
aF0.019047166674583147
aF0.016559379478197536
aF0.0389709204175285
aF0.03575793888556013
aF0.019473434535104316
aF0.01639530394895198
aF0.03943300195024487
aF0.03672768059566132
aF0.021099744245524247
aF0.0187297340196367
aF0.035652359801429806
aF0.033135190622836465
aF0.02303199413559076
aF0.02072102809052651
aF0.033468318246784104
aF0.03247544626854964
aF0.02456804733727805
aF0.01942700604953768
aF0.03112628309982687
aF0.03497412444337457
aF0.02351965892941728
aF0.018081940947585216
aF0.030530554239696753
aF0.03550053093927977
aF0.022701448726446305
aF0.01756075194864737
aF0.028642943162766468
aF0.04171001379043369
aF0.022102184271359102
aF0.01813542959591776
aF0.026157935593140537
aF0.04476925683033651
aF0.02315130696656701
aF0.018651296829971138
aF0.02527694329703336
aF0.044271021509261155
aF0.02360283421707094
aF0.017928241007111417
aF0.02445308474258672
aF0.042462027297017445
aF0.022165527572324636
aF0.01673169612118426
aF0.024258318308473963
aF0.039864230519245945
aF0.022995241555519037
aF0.014850348879911827
aF0.027803174156644798
aF0.037286906057308576
aF0.023615215046198526
aF0.014946276058407532
aF0.029273784950272025
aF0.03537273321550484
aF0.023286931618113047
aF0.016038473928850806
aF0.030322292063940413
aF0.029745350777490194
aF0.02318908748824077
aF0.015461185741606914
aF0.030024293025778838
aF0.03056006591861951
aF0.024161294876017446
aF0.016718623715506253
aF0.028351244343891333
aF0.030364519168055583
aF0.023564203065223967
aF0.019289340101522796
aF0.028312570781426887
aF0.02918726897412503
aF0.023354714409905726
aF0.021423141600055234
aF0.026954368588609768
aF0.028873390302539742
aF0.023450860958181975
aF0.021632905875065903
aF0.0248035305501144
aF0.028649548264384143
aF0.022861028394569573
aF0.021430540242557833
aF0.023010274134747353
aF0.029319995236393878
aF0.021515720319098965
aF0.021511829197922626
aF0.021938751360817858
aF0.030705134380117446
aF0.022020420646496914
aF0.019875229017370485
aF0.021423323932980964
aF0.033723698916370975
aF0.023233278184826227
aF0.02057900244157651
aF0.021793260451990745
aF0.031987758670941335
aF0.023676648697428047
aF0.021101173840134102
aF0.02212431305666093
aF0.02978661423057308
aF0.024194699528952694
aF0.02154921374490385
aF0.02238735327527446
aF0.027774414606387805
aF0.02589783946201167
aF0.02221808622013349
aF0.02383321487799094
aF0.02919070940212377
aF0.026146756130757596
aF0.02386046511627901
aF0.024032769806317127
aF0.030442804428044205
aF0.02787789101844994
aF0.023930552654179087
aF0.02385704780914356
aF0.032498720042908956
aF0.02935894058765768
aF0.022953185743883366
aF0.024690479578767553
aF0.03440928683385571
aF0.03068726948388489
aF0.02337037728800891
aF0.023668219327075347
aF0.03697351334133723
aF0.029193193096269686
aF0.024338352193023414
aF0.020897632229944584
aF0.03709322241252743
aF0.028492937544064307
aF0.023796710110676873
aF0.01968836532594917
aF0.03668607342086663
aF0.029291652486751835
aF0.023448824051994145
aF0.02092728297632464
aF0.03549720398735707
aF0.030046375396631606
aF0.02152920320955397
aF0.021810429649065214
aF0.03367142926805473
aF0.02882613700374708
aF0.01887538064576113
aF0.022888565117262717
aF0.03179459565302518
aF0.028573530854507926
aF0.017569004577187994
aF0.023623345423712788
aF0.031489487129101906
aF0.03078094676591242
aF0.017054620880387145
aF0.024116286752560234
aF0.032629038613081085
aF0.0327327401345788
aF0.018379147354412328
aF0.02653697232977612
aF0.03483722185422331
aF0.0321651818674016
aF0.018975807553874846
aF0.02978633083345118
aF0.03649509803921559
aF0.0315624002161471
aF0.018542083257589485
aF0.031485106483337584
aF0.03651254052209511
aF0.029710481877584908
aF0.019025078512584725
aF0.0320241834541718
aF0.0355621187179238
aF0.02844366248808731
aF0.02002095481049558
aF0.03145655998858711
aF0.03263980757666859
aF0.02727716727716721
aF0.020705678686134665
aF0.03088516746411476
aF0.03226502902653161
aF0.026094788344976933
aF0.022724164653325378
aF0.02939902805177301
aF0.034854352584610115
aF0.02658089573977418
aF0.02308043875685552
aF0.030237893974157635
aF0.03456138245529813
aF0.026182942441003776
aF0.023227104384801738
aF0.031507677427155045
aF0.032753866442872474
aF0.02632531428709305
aF0.022186678852964645
aF0.03318777292576411
aF0.03209604898115366
aF0.027868259138617377
aF0.021364497500627647
aF0.035663927651091464
aF0.031492294438594734
aF0.029495603439945815
aF0.020528126495181195
aF0.0380003419053898
aF0.02959003483987966
aF0.03025751592819586
aF0.01998772085408277
aF0.036315583398590354
aF0.028005529602440585
aF0.030322157752907114
aF0.019952223865316754
aF0.03445656169587052
aF0.02907657388603505
aF0.028781858707239004
aF0.020467702967588958
aF0.03164696380057265
aF0.029366010099801283
aF0.028926619261839044
aF0.02119956280171231
aF0.03155339805825235
aF0.02808490226645874
aF0.028699961508852893
aF0.023658119658119602
aF0.031015544549600274
aF0.029382769482314962
aF0.02988047808764933
aF0.024772670297864525
aF0.031015544549600274
aF0.029217899858584334
aF0.02975119364668051
aF0.025250683682771134
aF0.030624494695837442
aF0.02814075153484143
aF0.02907617814852095
aF0.02441749122247042
aF0.03088784248664203
aF0.026757122186113747
aF0.028650957431491986
aF0.021567691643371693
aF0.030678437301858187
aF0.02655412774432162
aF0.025848026063625847
aF0.020604738862763757
aF0.030810612544320746
aF0.027143196390406014
aF0.02509329250789392
aF0.019911103047895454
aF0.031116459551058424
aF0.02574191713283392
aF0.024264881663877542
aF0.020460821148884114
aF0.03507078507078498
aF0.02613993246593774
aF0.02461795606494741
aF0.01884311013355702
aF0.03632934636954678
aF0.028844565089106506
aF0.025573065902578733
aF0.01794394221596325
aF0.03496017666178688
aF0.03072262065374321
aF0.027683480755438614
aF0.01683631736799051
aF0.03513727822380802
aF0.032599139876921535
aF0.027368773305287246
aF0.014635589748258718
aF0.0347632587464457
aF0.033294238732377426
aF0.026776519052523106
aF0.013062673524190948
aF0.03452266627268465
aF0.031444738915550385
aF0.025015004201176267
aF0.012522524577450303
aF0.03406248467310796
aF0.03165192445613189
aF0.023791195573730998
aF0.012751953928424486
aF0.03441612445575061
aF0.0307596780741766
aF0.02359553283752023
aF0.013004822526455299
aF0.03496947496947488
aF0.02892875789073988
aF0.02338326635001821
aF0.013021190901185378
aF0.03458935786962652
aF0.028653837060853872
aF0.023961154625088393
aF0.013279908414424698
aF0.03498132065401961
aF0.025104110298096546
aF0.02449266919118355
aF0.013344911110095486
aF0.03707383265889642
aF0.023953220768851362
aF0.023822128110111113
aF0.014201561715146777
aF0.03472172092687496
aF0.024047954866008404
aF0.023692145694730236
aF0.01479809380486578
aF0.03363400825256685
aF0.023454707343361865
aF0.022574011191352952
aF0.015567744725402245
aF0.03323125508397523
aF0.021271638591831454
aF0.021864568431091982
aF0.016219659227916884
aF0.03140113882734131
aF0.022538222036339924
aF0.0223370957033102
aF0.014771851918981343
aF0.029189649866243627
aF0.024262264632815528
aF0.02139578674826404
aF0.012750784229649493
aF0.02915179533858713
aF0.027467389779793287
aF0.022912603106713926
aF0.011370007400596507
aF0.034495801497843925
aF0.037974367924998656
aF0.02606681297244568
aF0.011102886750555117
aF0.02833893050891235
aF0.03516635504443809
aF0.023112173739788744
aF0.009373678522764625
asg26
g27
(g28
(I0
tp49
g30
tp50
Rp51
(I1
(I3
tp52
g7
I00
S'0K^Z\x17E\xce?(#Tp\xcf\x9a\xec?\xe5\xe0 \x92\xa7\xa9\xe5?'
p53
tp54
bsg36
g3
(g7
S'x*s\xa2\x1e\x88\xc8?'
p55
tp56
Rp57
ssVnr_samples
p58
I2
s.