(dp0
I0
(dp1
Vdice
p2
cnumpy.core.multiarray
scalar
p3
(cnumpy
dtype
p4
(S'f8'
p5
I0
I1
tp6
Rp7
(I3
S'<'
p8
NNNI-1
I-1
I0
tp9
bS'\xe1\n\x07\xc2r\xfc\xe7?'
p10
tp11
Rp12
sVsample_idx
p13
g3
(g4
(S'i8'
p14
I0
I1
tp15
Rp16
(I3
S'<'
p17
NNNI-1
I-1
I0
tp18
bS'\x01\x00\x00\x00\x00\x00\x00\x00'
p19
tp20
Rp21
sVfake_frac
p22
(lp23
F0.04352171326591304
aF0.018871243341039252
aF0.025905616035008978
aF0.02318224250596405
aF0.03805366420725478
aF0.01963251950666997
aF0.02753758880872383
aF0.022831050228310442
aF0.035229522103873985
aF0.01812490533649715
aF0.022518022518022457
aF0.022166468366871805
aF0.0290292670169515
aF0.019287721163338094
aF0.022522887466580186
aF0.022918554965686847
aF0.028578821094227717
aF0.019181553275053796
aF0.025153027107659005
aF0.02301460343670978
aF0.02832800851970174
aF0.018752660173756243
aF0.02446173231797506
aF0.023408529048207602
aF0.026694774740631894
aF0.018772996921228458
aF0.022705025016314925
aF0.023087323656215658
aF0.025107978546679895
aF0.01666500349266536
aF0.02648840260138994
aF0.022324647234524608
aF0.024978963817766497
aF0.014815553837328174
aF0.021322137153206494
aF0.022175126641166075
aF0.025494808373131783
aF0.016714002060974648
aF0.019204842481771855
aF0.022099877944269816
aF0.026608438335242394
aF0.017725332663821196
aF0.019995083176268077
aF0.021784018170555385
aF0.024969814054576128
aF0.018626982730449163
aF0.02558682834575585
aF0.0231864685620276
aF0.02503125901702408
aF0.01904641136190713
aF0.021118982840826382
aF0.02248656945510355
aF0.025440878866724425
aF0.01864423953794706
aF0.02115678545571549
aF0.023894676825791675
aF0.024619473302730066
aF0.016998027014721463
aF0.025125758440076685
aF0.02264643414621658
aF0.02532889219045787
aF0.01607062019013124
aF0.02831655618299362
aF0.02272669302384894
aF0.027922030868819524
aF0.015004523977078478
aF0.03113115288492874
aF0.019794120659633256
aF0.02648039525884093
aF0.01591625677891281
aF0.03153784816739522
aF0.022360921259639382
aF0.028605745661339277
aF0.017805960684844597
aF0.02965615262668772
aF0.021057243743395394
aF0.026621847089998953
aF0.019419187466941996
aF0.028457706054370115
aF0.020890312833737018
aF0.025816286388670274
aF0.0182046768921297
aF0.025384388332841318
aF0.019828412949379176
aF0.02556691863050238
aF0.016499735095996122
aF0.023342273680856087
aF0.018981326894921997
aF0.02236429611710394
aF0.014342247876389448
aF0.022160205575971863
aF0.016877205543906263
aF0.024421850079744754
aF0.015267368847478186
aF0.021334792122538235
aF0.018422464675371085
aF0.020996986314905337
aF0.013478088831734064
aF0.022316595886418458
aF0.020083209204376135
aF0.0207605549456033
aF0.014106024341803702
aF0.02088286146531224
aF0.01885832082050233
aF0.020832296281547064
aF0.0171361442398549
aF0.021437751223647092
aF0.021690524530338408
aF0.0204274119486708
aF0.016332780400663476
aF0.021891802918906994
aF0.02202800776857809
aF0.021683288002417592
aF0.01812479111499597
aF0.023489932885905975
aF0.022089430271457332
aF0.020260747004933
aF0.019079570773682948
aF0.021519301242663814
aF0.02275452156832728
aF0.02059703744687267
aF0.02015543381322456
aF0.022255152163771514
aF0.023353443941679177
aF0.022321875939472838
aF0.01926030363302193
aF0.022297480357626596
aF0.02360590147536878
aF0.020654259162368835
aF0.020643640103343564
aF0.023983057839874516
aF0.02384817080784112
aF0.02073198113913624
aF0.022331822847557713
aF0.026497885660936825
aF0.02371481798499566
aF0.021563342318059245
aF0.02317639673571871
aF0.028060802996089585
aF0.024010761694459187
aF0.02203620594019459
aF0.022122019879923214
aF0.026126679667672837
aF0.02397660818713444
aF0.02066032003240829
aF0.020384376937383705
aF0.024173433105131814
aF0.023422416421095358
aF0.01983693581570186
aF0.01933667239789684
aF0.022796517954298087
aF0.024337244676227665
aF0.01820451991509547
aF0.0181758678851043
aF0.021189540712640505
aF0.02255332176752724
aF0.020042622285366296
aF0.019757182716235527
aF0.023716618237166115
aF0.0224913494809688
aF0.018535821611656813
aF0.01792308828598154
aF0.02137617692139254
aF0.022088301476864126
aF0.019378020071862175
aF0.019031528733633087
aF0.02049593075478369
aF0.021239121425611216
aF0.019719378081152775
aF0.020224608655051185
aF0.019104818327581
aF0.022882168493612107
aF0.021684215791711422
aF0.023433308949036762
aF0.022570878062207478
aF0.023706065358804863
aF0.021188148745339058
aF0.024421562689279166
aF0.018040963599702805
aF0.0232492638586608
aF0.02241948906766191
aF0.024406796092973596
aF0.0190471206928128
aF0.023497281838559182
aF0.022344861417709045
aF0.02257533184768912
aF0.017982330405775147
aF0.0232088799192734
aF0.02322763078166021
aF0.022618645295225167
aF0.021422147120547214
aF0.022457307722298696
aF0.022098473013153198
aF0.020726276121959524
aF0.018629032258064466
aF0.021625555584435782
aF0.0240770465489566
aF0.018103448275862022
aF0.023593466424682328
aF0.020442620395864666
aF0.022164177211979757
aF0.018802330705577
aF0.02467172893993798
aF0.02037928106425129
aF0.021701344512039204
aF0.016940732276814502
aF0.02580272071377423
aF0.020226117622653198
aF0.019832905863531272
aF0.014327289008282928
aF0.028899171538610654
aF0.01960835373157643
aF0.02015847702581476
aF0.013061794251813412
aF0.025897402427881407
aF0.0207862981704943
aF0.01985155813125916
aF0.013148046504665403
aF0.02580185707633727
aF0.02280924825492378
aF0.02068634145107852
aF0.014157492809679623
aF0.027505019666088985
aF0.023960205224366423
aF0.021005744944701688
aF0.01600219686946098
aF0.02818351278413035
aF0.02001981127157077
aF0.0196566501578177
aF0.015763670647391537
aF0.024394277681303166
aF0.02167492880497832
aF0.02279987633965369
aF0.01620287938139081
aF0.025507807102390423
aF0.02178280638680337
aF0.024389619695961446
aF0.01881625885544888
aF0.02031011137803008
aF0.020766815315196398
aF0.021369041569265113
aF0.01845018450184497
aF0.020652173913043418
aF0.01926188860468753
aF0.021449364179561763
aF0.02001117375184108
aF0.021144660763665758
aF0.022608879604410655
aF0.02028584601198704
aF0.020139328689043647
aF0.021007586072748434
aF0.019807154616007683
aF0.020750323415265146
aF0.018520385022425995
aF0.021696361772285122
aF0.020755554395217028
aF0.017679813194426578
aF0.017314824095419422
aF0.024546543701763603
aF0.02038949156972939
aF0.017631851085832425
aF0.017877376306181497
aF0.020647428681255263
aF0.021715385415583006
aF0.014506424637976712
aF0.020575510614749923
aF0.01973702270169365
aF0.02302605579998413
aF0.020496618710671242
aF0.01973021944835912
aF0.02277720610729476
aF0.0240884386048229
aF0.01878892822991234
aF0.019410114489347135
aF0.021331058020477755
aF0.025249868490268213
aF0.018461221122112164
aF0.019323550105538195
aF0.023042110491748927
aF0.02529111122819952
aF0.016661974354380445
aF0.01954405672605276
aF0.021671571188911134
aF0.027530942557918048
aF0.016870110343773052
aF0.022342064714946014
aF0.02200390823674272
aF0.027294043259477756
aF0.021028037383177513
aF0.019146359921295545
aF0.020752305056164436
aF0.027093985556902567
aF0.0175769790045664
aF0.019691474689686825
aF0.024220782815700535
aF0.026475878121032515
aF0.01697308956450283
aF0.01992164494405034
aF0.0204703235189199
aF0.02654114142864734
aF0.018076310789297955
aF0.01853407673311434
aF0.021588259498011186
aF0.021240931353290846
aF0.01934519976301481
aF0.022138228941684608
aF0.022607838843879947
aF0.024500955616903734
aF0.020370894313125283
aF0.024188204108681183
aF0.024370319945541116
aF0.021424815983175548
aF0.015751426759670218
aF0.023023402909550857
aF0.02311060655205962
aF0.022425690021231362
aF0.01885496183206102
aF0.021857229894394745
aF0.026668490153172793
aF0.027432698267266624
aF0.018704074816299217
aF0.019482674973827288
aF0.02625006786470485
aF0.02190728476821186
aF0.02338026705460585
aF0.018753997697326292
aF0.025866557062611244
aF0.030026853283424117
aF0.021420256111757803
aF0.02008796522544299
aF0.02226145485641769
aF0.02980195592361538
aF0.020282096159785802
aF0.01908991144118618
aF0.020500950648921164
aF0.030691509587701584
aF0.021647361647361592
aF0.02119822790026782
aF0.01929603678563603
aF0.024840480004201283
aF0.02305415105708516
aF0.021243035591624847
aF0.01948087283016809
aF0.024520849349203337
aF0.021177685950413166
aF0.023013935510120986
aF0.021976823449216025
aF0.024267338549263957
aF0.02096549589973691
aF0.024990505127231232
aF0.025682669015635252
aF0.026380368098159437
aF0.021982526709538514
aF0.02447765746530419
aF0.023529723148589213
aF0.024612361937128225
aF0.021766440199974306
aF0.027129817444218995
aF0.025070786485966338
aF0.02582584180009568
aF0.02129719264278794
aF0.025002559115569593
aF0.023116620557565377
aF0.02448409456289691
aF0.020443715735000204
aF0.022414361418900016
aF0.022185657479775064
aF0.025539856038389694
aF0.01911040426841776
aF0.022175637107569462
aF0.02025712014473282
aF0.026509339118471805
aF0.01748466257668707
aF0.02035178426601779
aF0.020848866429182832
aF0.025071043475951384
aF0.017144901244346738
aF0.021242657484302152
aF0.018751839071235538
aF0.02375499334221032
aF0.01685667962014562
aF0.021625820678594643
aF0.024198678060787012
aF0.028837309960504168
aF0.017346388096522967
aF0.02038222908828141
aF0.026861411902963074
aF0.026597173714469863
aF0.019690114500922527
aF0.021385436941657877
aF0.023674729799279398
aF0.025756878872324813
aF0.019555008083763134
aF0.020520582615815932
aF0.02757554462403365
aF0.02310935726255467
aF0.02001123079279182
aF0.020909566126502823
aF0.018706791378609137
aF0.019009641384207743
aF0.020686642339517856
aF0.02063733686023003
aF0.01934911570660304
aF0.018058934847255965
aF0.019629421098428572
aF0.022249597747385302
aF0.01895200110026126
aF0.016744683696669743
aF0.021724495080269232
aF0.023038338416555282
aF0.01484749045134215
aF0.018486500864476608
aF0.02015068318222444
aF0.021097152639661585
aF0.018604651162790645
aF0.022279695034887734
aF0.020523200696917623
aF0.02129275641187933
aF0.0218031329852238
aF0.023794142980189427
aF0.020854578829288137
aF0.021963301824799015
aF0.021800397877984025
aF0.022259038559174778
aF0.021126404210100137
aF0.02039581495020794
aF0.02277885413783553
aF0.022564047593525503
aF0.02174735726719978
aF0.021204709916542646
aF0.025247718748250502
aF0.02501813882245445
aF0.021213117241030515
aF0.02101828666818418
aF0.024000224039430872
aF0.022770500147338467
aF0.022863558651662397
aF0.020329670329670278
aF0.021176730445346306
aF0.020993645601522854
aF0.020260715295811534
aF0.020061844784674508
aF0.02181037094153603
aF0.021062516769519663
aF0.018091811477710534
aF0.019827542988920588
aF0.02214166201896257
aF0.02252849909290292
aF0.01868706182281703
aF0.020584887921223167
aF0.020775989836967972
aF0.02147197839297766
aF0.019087285363859313
aF0.01965930474398331
aF0.019820069204152194
aF0.022109165696966356
aF0.020428040497244598
aF0.020068550991008842
aF0.01929977166467321
aF0.021548004314994547
aF0.021722463582928644
aF0.020056741087948637
aF0.02199141393158836
aF0.021687067589143103
aF0.0227488882605454
aF0.02272056653880195
aF0.017943202548533727
aF0.02262858375812492
aF0.02077809504385065
aF0.026673653217556135
aF0.024718468468468396
aF0.020080213184032678
aF0.02089080603902287
aF0.02611435181766712
aF0.016844711137421583
aF0.022740147284939647
aF0.02279924002533243
aF0.024585080255029833
aF0.023897415970468166
aF0.03019547886862501
aF0.022287166454891937
aF0.02280282695954093
aF0.019118428040361075
aF0.02128228436981974
aF0.02423060140147328
aF0.023171705078319806
aF0.02015964257498564
aF0.021286256076064256
aF0.02213598182143125
aF0.022024460574724018
aF0.021588008472274964
aF0.02019083768253461
aF0.02204812820578247
aF0.02090653111061269
aF0.02358633202298149
aF0.020077977879744264
aF0.022610932475884186
aF0.021790444008249008
aF0.023650045480856627
aF0.019624664879356515
aF0.021560232778731966
aF0.022465807534686164
aF0.021421723051636702
aF0.020976755487162817
aF0.019477033969787543
aF0.02098591896623999
aF0.02111065178448389
aF0.021167140024650283
aF0.019374297106635262
aF0.021894218942189368
aF0.024261396986890952
aF0.022604778376638986
aF0.02042590178183393
aF0.023720747681891714
aF0.01849452881673598
aF0.023151865531823714
aF0.018938626696374267
aF0.024125422986099217
aF0.017286796180441176
aF0.02114957299279838
aF0.019304822380333004
aF0.023968431821503326
aF0.016372183498135795
aF0.019941647260365587
aF0.01961233211233206
aF0.022829700775766473
aF0.017134080135589584
aF0.022592411127442914
aF0.018367346938775463
aF0.02325349798336896
aF0.01760709829474555
aF0.01933364107855644
aF0.02363998115084553
aF0.02495848638856734
aF0.017075063754296436
aF0.023171931358618364
aF0.016107002035925015
aF0.024940255249910954
aF0.019882220975883286
aF0.02036217522330513
aF0.018002672885930614
aF0.02351010101010095
aF0.01677861624789226
aF0.023788187372708693
aF0.016308765305854855
aF0.021434875803807787
aF0.01979064898813672
aF0.024241930667535293
aF0.017471287993628074
aF0.023840157420721955
aF0.02039965537366938
aF0.022566276698508043
aF0.02232039060683556
aF0.024341480481831296
aF0.019344080044469095
aF0.024240299835521815
aF0.02443418248249258
aF0.024918065597558166
aF0.018731551215205883
aF0.025064145847400337
aF0.027447673081346245
aF0.02406330346222005
aF0.018842642994724008
aF0.02189663500241501
aF0.027104394470806613
aF0.023968340883070278
aF0.018259786969151974
aF0.019315305714666258
aF0.026789601741580158
aF0.024535388517633226
aF0.015370681158262033
aF0.020529414885151927
aF0.024847740416602628
aF0.02355533790401561
aF0.016403286115887396
aF0.021391807849024176
aF0.023104083512434696
aF0.023942066111631053
aF0.017265026220250054
aF0.021220300932731053
aF0.020140551000661963
aF0.0239474134349876
aF0.01893176508499149
aF0.01906343932922001
aF0.018371413046290738
aF0.022437012373900455
aF0.019036334913112112
aF0.021420548751136487
aF0.016509801882377367
aF0.022540729536042792
aF0.021589230011492305
aF0.02058909148649001
aF0.017613397732045313
aF0.02390637087315643
aF0.0164340268633131
aF0.025286480307030606
aF0.016468197097219646
aF0.025009974067424633
aF0.01888706140350872
aF0.020324983804793726
aF0.018650229176544915
aF0.02364154908435899
aF0.01647008819466577
aF0.019999999999999945
aF0.01876878839367398
aF0.023475946570252024
aF0.01863081355467137
aF0.02041416952054789
aF0.019899323580305123
aF0.02276667923105912
aF0.016501911163832827
aF0.020043351441033957
aF0.022443301133977262
aF0.022568132587778896
aF0.017105685833600982
aF0.020166136916050053
aF0.019351478057038626
aF0.022014727093296837
aF0.019255385788599234
aF0.01992524671273758
aF0.018736880296472858
aF0.022806310165818196
aF0.022042050295451362
aF0.019870039203050267
aF0.02205019939010081
aF0.023379623816579133
aF0.022705979608707568
aF0.02029940280121041
aF0.021121480830381786
aF0.02390907042535607
aF0.019365324224560575
aF0.021509718408442305
aF0.021790558300914673
aF0.025742027749203335
aF0.01685988108489665
aF0.02307524655369688
aF0.02022151145885644
aF0.024541893087324594
aF0.01799005740338922
aF0.019326282199747757
aF0.01795598400381361
aF0.022657654236601547
aF0.014446315103459473
aF0.020928043039677144
aF0.01852048679385657
aF0.023498760560530116
aF0.0127460776106505
aF0.01991533320908432
aF0.02054922473379408
aF0.022098756162875034
aF0.015253303964757667
aF0.025076751704838685
aF0.01807993233241695
aF0.024017302517415625
aF0.014397435543150814
aF0.022912684095743187
aF0.017029775827179267
aF0.023779161353236756
aF0.014657210401891212
aF0.020874698148644965
aF0.018747517542698214
aF0.024317255947291595
aF0.013491547464239235
aF0.020653256859735517
aF0.017315337936806816
aF0.024776858264369764
aF0.012805089956425233
aF0.020173763348306693
aF0.017884812353914387
aF0.024511518664734333
aF0.013705295596464159
aF0.019726086140816328
aF0.019425281394263135
aF0.02504947270859942
aF0.01571125265392777
aF0.024998650180875694
aF0.020350969093766314
aF0.02396623624579203
aF0.022047822036529875
aF0.023743389776187104
aF0.0228045661859692
aF0.025694322706668937
aF0.015228835410399615
aF0.024593415311384304
aF0.02113195615514328
aF0.022974576485142208
aF0.01953968209469872
aF0.026845998655010014
aF0.021332979992049764
aF0.022359172863400167
aF0.020241123769494468
aF0.024207969679984988
aF0.01765849863866195
aF0.020617246288387174
aF0.02096038679193445
aF0.02405212634740166
aF0.01924353019243525
aF0.021103646340837938
aF0.02182949321441346
aF0.02183895771038012
aF0.019495199340407936
aF0.02277770692513704
aF0.018251550429768202
aF0.02307279076013961
aF0.02117315764305823
aF0.02388278018763234
aF0.01925913784625466
aF0.023751506225732966
aF0.02182785223412933
aF0.02604513124904051
aF0.02082171925521234
aF0.024595225948500322
aF0.02241322481681493
aF0.024789428557018142
aF0.01653439153439149
aF0.02545827596447173
aF0.02228982010804001
aF0.025240537988413275
aF0.020291495684165783
aF0.023824769222560098
aF0.023065732046025595
aF0.025163666121112864
aF0.009714469729497612
aF0.023665943019484804
aF0.02060983987739782
aF0.025842696629213416
aF0.013014273719563355
aF0.023415313722338252
aF0.01867985638605032
aF0.0229440643044285
aF0.01253188421869798
aF0.02255639097744355
aF0.019404129325613927
aF0.022785523887635783
aF0.01604890030144017
aF0.023960777077786793
aF0.018199665720425494
aF0.024028524183546857
aF0.01624136394027185
aF0.02581342614565199
aF0.017370117110744276
aF0.022141162666122434
aF0.013294139456052505
aF0.025190238782471727
aF0.014968425976455873
aF0.021502323180175472
aF0.014236434320757777
aF0.027494773611368314
aF0.019170516701184165
aF0.023741396643724322
aF0.016337396665265472
aF0.026119501331013872
aF0.017629290141138437
aF0.02340599315942615
aF0.01683323097537821
aF0.023501701125359792
aF0.01842355677733131
aF0.023944054526566436
aF0.015888032499513018
aF0.025169383866186678
aF0.02034606836702291
aF0.022906733267741307
aF0.016657443276148265
aF0.02380571550437187
aF0.020734488453170406
aF0.02505567928730506
aF0.018186403631676236
aF0.025052080551252538
aF0.02145027077004353
aF0.02611531503987356
aF0.016307060846414066
aF0.026280540077153806
aF0.02567911714770791
aF0.025255730131735855
aF0.01648458027935274
aF0.02246029010103147
aF0.0216250428545056
aF0.024357204927669518
aF0.015099009900990057
aF0.01984453346775258
aF0.01867100225520528
aF0.02438836744114473
aF0.014899017768458186
aF0.019860525548219394
aF0.024552918980681782
aF0.024026639344262232
aF0.019629743389271995
aF0.022541635727166588
aF0.02058598994392813
aF0.02551842286941618
aF0.024418538848961505
aF0.02228834046170597
aF0.019928394671721108
aF0.025941701734578604
aF0.015192111151009543
aF0.023184253806567925
aF0.019258407588387417
aF0.025078928607801136
aF0.014460511679644008
aF0.022436323956032195
aF0.01923176745393195
aF0.025942191808803937
aF0.01604863887823844
aF0.02199999999999994
aF0.019688184512305064
aF0.022340695608022283
aF0.01882196634189543
aF0.021545517572396082
aF0.023806399118087025
aF0.02241720342851341
aF0.017606308699104574
aF0.02240487869547919
aF0.02019649232533286
aF0.023049238073359308
aF0.01810054027370206
aF0.0203753915813304
aF0.02350108607469047
aF0.02502591066508247
aF0.01862844325300211
aF0.02336784393048193
aF0.021171359782267293
aF0.025368311238899707
aF0.01726792784865811
aF0.022535061905140586
aF0.0212871158300153
aF0.024233167875779497
aF0.02261208576998044
aF0.023202352312215922
aF0.022836038285476427
aF0.02299692028070878
aF0.018603494029190572
aF0.02413389388537059
aF0.022995406139068638
aF0.021694502876549098
aF0.015012464728926348
aF0.023135704874835246
aF0.02279306298083186
aF0.020529347577841448
aF0.014058595787912864
aF0.022772870580265187
aF0.023702888871428133
aF0.022440784792111357
aF0.013630291960853764
aF0.026440980892054492
aF0.020312785566956423
aF0.022226769317338867
aF0.012436092303440617
aF0.024954224431075006
aF0.01831776668132773
aF0.022527682321496698
aF0.012163265306122415
aF0.026269052352551288
aF0.019564815059619756
aF0.0216883550216883
aF0.020135931639358073
aF0.02460275423728807
aF0.017756276150627567
aF0.02362666802745382
aF0.015128719491808716
aF0.023415070982695435
aF0.019160632168719226
aF0.02197802197802192
aF0.013805075638588042
aF0.024304184111435805
aF0.019871219718161134
aF0.02257050111584494
aF0.014065714126869366
aF0.026675567423230902
aF0.018458686440677916
aF0.025092063492063426
aF0.013495876260031618
aF0.02435510977138735
aF0.017690314814330154
aF0.024128686327077684
aF0.011479627119581722
aF0.024132609621115304
aF0.019481027513365445
aF0.02383926977894489
aF0.0140009558885546
aF0.025117446081571574
aF0.02048083170890183
aF0.023975290513683828
aF0.011377511377511345
aF0.022428070920479822
aF0.022793455816169792
aF0.021568924584532953
aF0.01229508196721308
aF0.0210289047997878
aF0.02193977110911866
aF0.020278450363196074
aF0.007797904313215802
aF0.021640852794050713
aF0.019686812750059565
aF0.019703812094759895
aF0.01682195349890964
aF0.0217733963826774
aF0.019818089674855245
aF0.01910217265134114
aF0.014781364822034569
aF0.018470970446447237
aF0.019938896928766627
aF0.02043662364664413
aF0.016800563777307913
aF0.02271214420747125
aF0.019581652552560523
aF0.022424790316910193
aF0.017499437317128018
aF0.020491153947715814
aF0.018899700598802343
aF0.02229025402287212
aF0.012640488032755316
aF0.021371398078975395
aF0.019920847831283645
aF0.02314275586164981
aF0.014490335141148617
aF0.019587959009393627
aF0.01980591791282209
aF0.024020353695343034
aF0.014621424409732778
aF0.019832761578044544
aF0.02327441414060619
aF0.023341584158415783
aF0.012494531933508277
aF0.01920468147360016
aF0.019745422296416036
aF0.02232831070664871
aF0.015335392762577185
aF0.02061250100125485
aF0.018455636486171184
aF0.022805925557077
aF0.011698827488301141
aF0.0187241976295112
aF0.017101827676240165
aF0.021300282024639995
aF0.011499136900809954
aF0.016683907588658082
aF0.015227761178382305
aF0.021771901643395472
aF0.012069385435553238
aF0.019364977891428214
aF0.014951491289019236
aF0.020210982943902146
aF0.012145858750169412
aF0.022508296756235887
aF0.017536423841059554
aF0.02078796277964754
aF0.017436864136611822
aF0.019324820895127767
aF0.023498694516971216
aF0.02056644448298927
aF0.013091261717487304
aF0.019954238280210663
aF0.020010111492509457
aF0.019449187142751047
aF0.013641219492152152
aF0.02261172063152255
aF0.018994918726223047
aF0.02052484972877872
aF0.016234033786567733
aF0.020351379282931816
aF0.019456928334992817
aF0.020941229452825887
aF0.015937982815168145
aF0.0189995000131575
aF0.016396492160510187
aF0.023460627590290054
aF0.015492159455885088
aF0.023829219479653038
aF0.023980750513680045
aF0.024745377237219358
aF0.01780806859404194
aF0.024545237906108443
aF0.016786955359529492
aF0.026525976405070647
aF0.01803839364518971
aF0.022444931621254768
aF0.014973374808878538
aF0.026532367031077198
aF0.017444085962705698
aF0.025368313243519982
aF0.01837376097993387
aF0.026755037890786745
aF0.016756697166795235
aF0.028726790450928304
aF0.015052564510990721
aF0.024511597278115107
aF0.014141742522756788
aF0.02272965329422849
aF0.019097643097643044
aF0.023701698252522708
aF0.015343872006989336
aF0.021573304673779072
aF0.013221695238599895
aF0.023846210286888193
aF0.019891151200375667
aF0.019262894132386667
aF0.017415881561238175
aF0.022834199571396843
aF0.016919692566741758
aF0.020262898113991738
aF0.015753918453445794
aF0.02177849435693905
aF0.01850535753334786
aF0.021576305484744103
aF0.01834911752044765
aF0.025651988029072186
aF0.016088015632946928
aF0.019175505512304666
aF0.018594153052450508
aF0.027436713657723138
aF0.016123282788121373
aF0.019846814676809967
aF0.013702639421030189
aF0.02801347483599699
aF0.017169386297456134
aF0.019453718552012358
aF0.016368491321762307
aF0.026737167656008313
aF0.015137413774225294
aF0.02320759231198654
aF0.01638772663877262
aF0.024845494417862775
aF0.013879003558718822
aF0.020642382540641276
aF0.017882996407314018
aF0.023997622526560774
aF0.01634157748493764
aF0.028172822148921136
aF0.018473335657023304
aF0.023158206596879262
aF0.01294498381877019
aF0.023362614476810872
aF0.01774271713962625
aF0.024403417460473278
aF0.016257719001038264
aF0.02086469640546174
aF0.019160288886493425
aF0.023931164291476143
aF0.014713162092294112
aF0.02665345155500783
aF0.016106008780198723
aF0.022733896823083594
aF0.012563704248766759
aF0.023734756895378593
aF0.0182750708597651
aF0.024482386419389598
aF0.018921397015920594
aF0.02707982125177269
aF0.01739500492060532
aF0.021337336647552427
aF0.012714851163042854
aF0.025366164296327674
aF0.01947912182522595
aF0.01930235424627137
aF0.017674187401618243
aF0.022172481895984142
aF0.020801295022258137
aF0.019826857057565
aF0.017181661984891
aF0.022666737694438464
aF0.019080195612089415
aF0.019329164297896485
aF0.016110190442554767
aF0.02199879242905515
aF0.019021077410103036
aF0.021679275703832265
aF0.016921859221048562
aF0.02265929004420673
aF0.01695963016717729
aF0.021478758782786933
aF0.016840373011519427
aF0.02974583745356381
aF0.016753306219193534
aF0.01998752339363688
aF0.018077103254429665
aF0.024748790472646005
aF0.014500494031564571
aF0.0202645158058213
aF0.017609099857814673
aF0.03483895456024283
aF0.015267381119069374
aF0.020804195804195753
aF0.02048401751053104
aF0.02853644252781763
aF0.015565669350712262
aF0.021103653989559976
aF0.01931942919868271
aF0.025601733202990765
aF0.014255262456701267
aF0.020113945999504532
aF0.018324892446767906
aF0.022201738214379714
aF0.013278449077147753
aF0.024629435544243086
aF0.015725460780111403
aF0.0188985871929962
aF0.014997048881257672
aF0.025852083692732272
aF0.015320752655870181
aF0.018123079347569095
aF0.013334758558028879
aF0.024831309041835295
aF0.016535758577924716
aF0.018870929214109353
aF0.01531311286032825
aF0.022153997298292958
aF0.015161521105057467
aF0.01956869009584659
aF0.01543730101399252
aF0.01802825249431982
aF0.013915468314287237
aF0.01903522977672759
aF0.015175273075185331
aF0.017892144544403632
aF0.02009162664900364
aF0.017424362426738428
aF0.01667289121271937
aF0.017577008179399802
aF0.016226176397788793
aF0.017254038179148265
aF0.016231945964706153
aF0.01799306231439191
aF0.016904282602101268
aF0.017118736809192483
aF0.01579690455259859
aF0.01962684156915351
aF0.014564841023386147
aF0.018559270355542543
aF0.016381116064235413
aF0.019593198396693753
aF0.015488252671102355
aF0.023622047244094422
aF0.014579439252336408
aF0.017839493971140496
aF0.015580425718674523
aF0.026983226642897585
aF0.02310878569871369
aF0.019792438843587792
aF0.013164611375298854
aF0.02368583963609931
aF0.017639771625552036
aF0.018324868041031724
aF0.013795523878944916
aF0.020514733308466933
aF0.014640205068576372
aF0.01739367098003311
aF0.014077656786187104
aF0.018217821782178168
aF0.015578127466975381
aF0.01669597958829791
aF0.014105439511443742
aF0.018507943100404895
aF0.018192395155745892
aF0.015539440580139076
aF0.01771744759724148
aF0.025109637394373663
aF0.02003428326548098
aF0.016950405282219277
aF0.019304703476482565
aF0.020135110269957627
aF0.016572981817222134
aF0.016744117430109864
aF0.017100513015390416
aF0.023386564603404977
aF0.01694066814205918
aF0.018666272655634312
aF0.01698548365215027
aF0.023654953084342987
aF0.015310424791820345
aF0.019275099318259797
aF0.015276238720911784
aF0.020974804016674915
aF0.01591789716200645
aF0.019639853566834817
aF0.015103146712449994
aF0.021561938491185068
aF0.016985249651618285
aF0.019775547535472338
aF0.014295275063579135
aF0.025624818940770518
aF0.016442608718528803
aF0.018705964076610054
aF0.01439516449722962
aF0.025283325045148727
aF0.01635114142025852
aF0.01941939958386996
aF0.014223049315432635
aF0.026911922242834303
aF0.015206334224739092
aF0.021274485494668927
aF0.017974738205764822
aF0.026604519626070265
aF0.015810690539762275
aF0.022119290597443716
aF0.015148332895773128
aF0.025576443705857845
aF0.017001586462189272
aF0.022385293899636737
aF0.017105368004462225
aF0.026959429218334444
aF0.015233116848830415
aF0.020160889859966183
aF0.019040978330830242
aF0.026744186046511555
aF0.01629755669582321
aF0.0171439896937865
aF0.016596846065586847
aF0.02930997763816412
aF0.014832930168265996
aF0.013816456165500843
aF0.017822415216985858
aF0.024004885950237594
aF0.013151975442589078
aF0.015597103749256061
aF0.01851359966000845
aF0.019096902991935644
aF0.013820987817446648
aF0.01569356638155444
aF0.019341126461211423
aF0.01902977195945941
aF0.012830328150162324
aF0.016926370289241755
aF0.019154929577464737
aF0.019824840764331157
aF0.013278748753477107
aF0.018091900892169242
aF0.017870321560358414
aF0.017608775520915294
aF0.014841026724411073
aF0.018460930944271637
aF0.01740096260644201
aF0.021379546111973013
aF0.015106215578284775
aF0.017751039809863294
aF0.020261071514374895
aF0.020587626732878075
aF0.01598143059149965
aF0.017840679739864904
aF0.0193491409302574
aF0.02138273272883156
aF0.013587528965662487
aF0.019203840768153582
aF0.016051912568305966
aF0.021221330424166806
aF0.013554494870915815
aF0.02080540245295193
aF0.015662330767188704
aF0.02261032278184931
aF0.01584563117103722
aF0.022368876365613667
aF0.015637903934784304
aF0.019776771937043462
aF0.01527766764464881
aF0.023291887233780565
aF0.01790274454987764
aF0.019140483929216273
aF0.014283484233531027
aF0.024704407462943327
aF0.01848829431438122
aF0.019463399503722032
aF0.01526032315978452
aF0.025260832208174724
aF0.019288905535193506
aF0.018263070882413673
aF0.015508944450256261
aF0.02467475300792325
aF0.01898515705902653
aF0.016744518467468113
aF0.01677825707253813
aF0.023161396042751917
aF0.020091617777063354
aF0.020496862462709545
aF0.016402088497442072
aF0.021857787922393634
aF0.01910625199023453
aF0.01881720430107522
aF0.016456665874210803
aF0.020020393444253725
aF0.0177323876059943
aF0.020733817036329313
aF0.014111105282484356
aF0.019804211211536967
aF0.020529270248596576
aF0.020495501301915436
aF0.015179964562452027
aF0.020078415703119096
aF0.019710238076109318
aF0.020223044506115683
aF0.013683548285624373
aF0.019315784185672612
aF0.021658415841584098
aF0.019168191986983885
aF0.012441191845269178
aF0.018980792044221158
aF0.017543391188250955
aF0.02137295811917963
aF0.014650569452116008
aF0.019126233138715473
aF0.015350935035475917
aF0.020252391614085027
aF0.013190674743660312
aF0.019945671311434127
aF0.01664968631025788
aF0.020235827197363627
aF0.013480969582744322
aF0.020583406995832755
aF0.015765705582128593
aF0.020825843562220683
aF0.015587023142766523
aF0.018325402450136634
aF0.012285465714059708
aF0.0177860025188269
aF0.014215776108071277
aF0.017095523440253745
aF0.016587236081897768
aF0.018519477828429293
aF0.015361422296155705
aF0.01626690803037156
aF0.018228342302416326
aF0.017689745112723657
aF0.016513809411826143
aF0.0167447923194545
aF0.017035684998545044
aF0.01903284199637957
aF0.015254544044263992
aF0.01744521699841859
aF0.017396124808616183
aF0.017141241776315746
aF0.01689300255418148
aF0.017845890151992495
aF0.019687040256787428
aF0.016548463356973953
aF0.017558463179252352
aF0.018721183563864773
aF0.019323928666489167
aF0.019049799074215324
aF0.015414948915576227
aF0.017712627882119362
aF0.01866602301070073
aF0.022315202231520167
aF0.01702327034202713
aF0.012866103620289393
aF0.018514554794520497
aF0.021501568349691334
aF0.01777579978009315
aF0.01457301822265322
aF0.017970005356186345
aF0.02040248773828179
aF0.017305734645402058
aF0.013647959183673434
aF0.018286479250334622
aF0.021323957200313607
aF0.017161613811997576
aF0.01407151095732407
aF0.018860847666505868
aF0.01847138573192546
aF0.01681002832266858
aF0.014183311650212967
aF0.016992239764516946
aF0.01899183528576495
aF0.01886247966839808
aF0.014855375567216734
aF0.018806059127984123
aF0.01731874558838354
aF0.01845212990299447
aF0.016090063229321914
aF0.016013610218465566
aF0.01734250176964299
aF0.017020278371474698
aF0.01540224032586554
aF0.015753314368525534
aF0.017068476499189585
aF0.016419463960447522
aF0.016760631648766507
aF0.01595816011800988
aF0.018213748118414405
aF0.0168149044787116
aF0.017567018683996707
aF0.018843880483704736
aF0.017661586050340464
aF0.01579583683767868
aF0.017561720539577455
aF0.017441075622991933
aF0.01896396845992609
aF0.018720172963851558
aF0.019186001893018802
aF0.017844205329111497
aF0.019961235431822134
aF0.022052541648867944
aF0.018093035209457677
aF0.016995060810451917
aF0.02120835405271004
aF0.01616161616161612
aF0.01405092827432278
aF0.01775828407905641
aF0.020626298530626495
aF0.016320747290808384
aF0.0136769724954828
aF0.017613941018766708
aF0.02095717884130977
aF0.01508299568683828
aF0.01463426942194632
aF0.0173153296266878
aF0.021669018343075937
aF0.015160639941347398
aF0.014915579335234548
aF0.0172757475083056
aF0.021224738499035185
aF0.014630463645120103
aF0.017351202609050098
aF0.01833545918367342
aF0.021782178217821725
aF0.015115458040220678
aF0.017723123732251475
aF0.02139968395961105
aF0.022316391264010374
aF0.015037201409737593
aF0.016332796456613608
aF0.018832997987927515
aF0.022219962373519034
aF0.015921471617674106
aF0.016225165562913865
aF0.01728244759686635
aF0.02110299672626537
aF0.015800820275528406
aF0.018204693678426493
aF0.0198541874041591
aF0.022274296369088058
aF0.01343534732081818
aF0.01715296651453767
aF0.016984569224174836
aF0.023183690070669522
aF0.012338915844941794
aF0.01787394167450607
aF0.013809611489596722
aF0.020542461091928088
aF0.014217260807751002
aF0.018901913025828335
aF0.013147759568647206
aF0.02019798020197975
aF0.013461538461538426
aF0.019606345326305553
aF0.014639880316306864
aF0.018179090295316398
aF0.01634610289832031
aF0.017166948574890768
aF0.013218631976500174
aF0.01861035968339841
aF0.015611014584320498
aF0.01782617566051204
aF0.01563035398929857
aF0.019364038928222912
aF0.015225637671680796
aF0.01709793145561403
aF0.01518506801645045
aF0.018809327021814762
aF0.01759670259987313
aF0.016109422492401174
aF0.01506284934526461
aF0.018189106579145117
aF0.01733014861995749
aF0.01869398865007827
aF0.015897871436912743
aF0.01876884422110548
aF0.014199427784253432
aF0.020298014100147147
aF0.015987336762959988
aF0.018056533547932758
aF0.015599627312658017
aF0.017804613717293652
aF0.01664976786381339
aF0.016242174339375918
aF0.01560793714209611
aF0.01680629211180279
aF0.016392565851049562
aF0.015986059549965865
aF0.01545306796685579
aF0.01798561151079132
aF0.01499750479342312
aF0.016538065197174913
aF0.01693649481236493
aF0.01520343155917659
aF0.01895734597156393
aF0.01677438825038348
aF0.014917053749170498
aF0.015688389051507174
aF0.01596281540504644
aF0.017687934301958263
aF0.014516852746324558
aF0.016792438251732
aF0.019415398604016743
aF0.01890477502065749
aF0.01699138502319412
aF0.016208777205769874
aF0.0161552157519899
aF0.01869951131943747
aF0.017770469193432836
aF0.017147968310758963
aF0.01649489943093904
aF0.01876409786084322
aF0.017473617224372864
aF0.01586774325429268
aF0.016532841911280724
aF0.019432578582187165
aF0.014882204459402568
aF0.014593859806612083
aF0.016160192147034208
aF0.017970140399446267
aF0.014464548706080332
aF0.012641839920798079
aF0.015136959626119653
aF0.01848584987700942
aF0.016707448627884293
aF0.013118191581854413
aF0.01660187033729112
aF0.018322727610369627
aF0.016844528143963127
aF0.013387734285349959
aF0.01668412781561022
aF0.020589913423135073
aF0.01689799287962433
aF0.015285231058775616
aF0.016261874062573962
aF0.02103679589622171
aF0.017854822361410665
aF0.015482556659027208
aF0.0173534072900158
aF0.020714036747497833
aF0.016871205949596572
aF0.015951202082588902
aF0.01680297787564219
aF0.021842732327243788
aF0.0196474086661002
aF0.014449992434558898
aF0.018740431821781083
aF0.020993597697156134
aF0.015746799801861416
aF0.017661049542027178
aF0.017952896645988807
aF0.020719903206291537
aF0.015178665542321031
aF0.019177179915893957
aF0.020286333139626973
aF0.020446421876171617
aF0.013785346203144174
aF0.018737198776139736
aF0.018066561014263027
aF0.02070439688812661
aF0.014817739176207356
aF0.017569145895976697
aF0.01862414771973571
aF0.019325586581105475
aF0.015448181483235918
aF0.019787486433961738
aF0.01954891217617953
aF0.019543410584572762
aF0.01456259821896277
aF0.018612818261632965
aF0.017845778532032196
aF0.019259734808266822
aF0.011788480970023546
aF0.02243897508465148
aF0.017108685741867965
aF0.02007608295496375
aF0.012877191178738465
aF0.020930648084335143
aF0.016826210057974876
aF0.017672688108875463
aF0.012974232811083742
aF0.020227655350905795
aF0.01437295005466517
aF0.017648928108729086
aF0.01765612348839027
aF0.020048924419337703
aF0.013495528109028924
aF0.015838045580279514
aF0.016795161332191114
aF0.017023309613015118
aF0.01468999783970616
aF0.01768798105387799
aF0.020623689727463257
aF0.016546908207671247
aF0.0125143421298396
aF0.01763162412025793
aF0.016547848259353654
aF0.015363518626679154
aF0.013212331509408745
aF0.017604426815532984
aF0.015489514987778166
aF0.012661753906151048
aF0.014907429670593853
aF0.019234076002849446
aF0.016093559988615447
aF0.013437793159402618
aF0.0161068863540346
aF0.019938274628912896
aF0.017939090529828904
aF0.014177717820144032
aF0.01952772618731754
aF0.019901719901719853
aF0.018282058617012927
aF0.013365396785217027
aF0.019321631252474544
aF0.018559671786856777
aF0.0206115810019518
aF0.013350175855748716
aF0.02273693157671052
aF0.02051735139645604
aF0.019583365842240723
aF0.0139520699382449
aF0.022933347473354834
aF0.02009109934753165
aF0.023138464756327068
aF0.015802556818181778
aF0.022460006356605514
aF0.019013666072489555
aF0.02076314346156854
aF0.016755694416448252
aF0.023615113672750498
aF0.019224631098234624
aF0.020006755527840515
aF0.018042618348857935
aF0.02236675126903547
aF0.018519427001569812
aF0.01898998330550913
aF0.019655276685817912
aF0.02299002969876956
aF0.018174175362247122
aF0.01723153578657804
aF0.019587602910445832
aF0.02186460965553924
aF0.01769082935002213
aF0.017248127756177706
aF0.020701202496321423
aF0.0207267549179895
aF0.01507090004701919
aF0.013566189670205637
aF0.019148667424529444
aF0.020684906110125217
aF0.014713506307551744
aF0.015402688944002048
aF0.018468059339993896
aF0.021144013634426872
aF0.01477339324086732
aF0.015793195568476425
aF0.016907602102709217
aF0.021035940803382606
aF0.015638952576324326
aF0.014462917600458605
aF0.018089632856888027
aF0.02108040401886837
aF0.016084290441892114
aF0.01610017889087652
aF0.019248466257668663
aF0.020584525375056974
aF0.017580395195660552
aF0.017786663896967134
aF0.02000451795888652
aF0.019141949435352485
aF0.01668276195074839
aF0.018960308365454686
aF0.01984721199969539
aF0.019187874553223457
aF0.017554479418886156
aF0.02031873549127515
aF0.017359810166104613
aF0.01976454182198498
aF0.018461390147498268
aF0.018889033433068768
aF0.01842705643442721
aF0.018245651364434227
aF0.019661148599446527
aF0.019049858889934098
aF0.01767556303196159
aF0.020089768548561485
aF0.018318862703940418
aF0.014821513804104769
aF0.014266829621130834
aF0.0202454319385879
aF0.01838226482923902
aF0.016667530716988913
aF0.016303943221579728
aF0.019102609071041148
aF0.018693581633378305
aF0.017111105341053624
aF0.017257357545397575
aF0.018276130835595403
aF0.018586920490599946
aF0.016793499290597143
aF0.017444341256494522
aF0.020605699102567522
aF0.021331058020477765
aF0.017396974439227914
aF0.016859029282798203
aF0.022495997394914594
aF0.020576423340420456
aF0.014972378543032641
aF0.01965103762485288
aF0.020025031289111334
aF0.022262177955475592
aF0.015091674731253066
aF0.020524940913048836
aF0.020017686309188785
aF0.022811271451776118
aF0.014508038585208965
aF0.022005744973148438
aF0.019186247638308576
aF0.023963024413368037
aF0.01638702606789652
aF0.024155675459632233
aF0.023148774874779954
aF0.022239081985869356
aF0.014524457558568375
aF0.024379209812003557
aF0.02153045903045897
aF0.018889607124901196
aF0.014934304670222415
aF0.02389492296034346
aF0.023652023652023586
aF0.01790716047018262
aF0.014384185199635805
aF0.022240568397878458
aF0.02258168703235177
aF0.017216020061244623
aF0.013759925510177653
aF0.023044466082440707
aF0.02127200086383754
aF0.01585383537145339
aF0.014608920491273394
aF0.020937539273595523
aF0.02051777849393055
aF0.01341725214676031
aF0.015834065196053064
aF0.019431612773649277
aF0.023051621496724323
aF0.014772508193560789
aF0.018914688233759407
aF0.018765543748586883
aF0.01885310290651998
aF0.014317446520836316
aF0.01785294808550618
aF0.01814019020781961
aF0.017508781410429566
aF0.015398109346067597
aF0.016391733771141122
aF0.01837461145091743
aF0.016481878066632285
aF0.018059792556436808
aF0.01534513459725564
aF0.020699876906071744
aF0.013447137450680373
aF0.01913562281722929
aF0.017152342309110984
aF0.021244384880748462
aF0.01414980570816022
aF0.01966625493472833
aF0.01664468477974145
aF0.021839166231375714
aF0.01559038097811398
aF0.02012696580579998
aF0.014791198452934681
aF0.02163767501060665
aF0.015902813162058473
aF0.021092224920249435
aF0.015146750524108974
aF0.020056237091596735
aF0.018237572627501565
aF0.021638998176758416
aF0.015276910264418032
aF0.018044513122149344
aF0.01763291477424521
aF0.021986660314435393
aF0.017620340398872253
aF0.01750890388782342
aF0.01812624014586792
aF0.023786327020411984
aF0.01545551039428375
aF0.01624896722665928
aF0.01870307531995613
aF0.024531264871038298
aF0.015882048629073938
aF0.015868187579214155
aF0.01715088537800865
aF0.023805583792345278
aF0.013817862492897324
aF0.017916762239722665
aF0.017714255632764745
aF0.022928870292886972
aF0.01539265647458509
aF0.017472365136773426
aF0.017106898284022058
aF0.024678650932331125
aF0.011258982540794325
aF0.016534920952571502
aF0.017147897372039284
aF0.023832289525266472
aF0.011701216822769344
aF0.017142711804054182
aF0.018412664963253646
aF0.025954271046251778
aF0.011745917263407315
aF0.014944395851555629
aF0.01907815209964782
aF0.024646378054007656
aF0.012922645769001186
aF0.014881623449830853
aF0.01820232381252126
aF0.022426969502178363
aF0.012334210662125167
aF0.014142184916698424
aF0.020518272425249114
aF0.020876975814130592
aF0.012941206981508822
aF0.011637844359541495
aF0.020403825717321942
aF0.02174732576221662
aF0.01313611915597845
aF0.017729409360310602
aF0.019992013842672646
aF0.01968019680196797
aF0.01347270615563295
aF0.014666835250979858
aF0.019209339347306925
aF0.019948535140111853
aF0.015266382801952395
aF0.015735308740180927
aF0.018483700977146893
aF0.02055699787585551
aF0.01570735271095336
aF0.015829816983346193
aF0.02030510816988247
aF0.020154077324874137
aF0.014728981588772975
aF0.016810506566604086
aF0.020036572622779466
aF0.01942232259598236
aF0.016069704953956078
aF0.01697196261682239
aF0.020807801621861174
aF0.02014187089274271
asVreal_frac
p24
(lp25
F0.05881740036467815
aF0.0301878826261346
aF0.053961063164836266
aF0.028715949207018206
aF0.06129305259918431
aF0.03350695794138217
aF0.057951898521033704
aF0.031066396298029347
aF0.059807643634522754
aF0.03428147161985705
aF0.059253760070389454
aF0.029767394200225356
aF0.05769522749126965
aF0.03508591418870245
aF0.059870505579280725
aF0.030313892160376797
aF0.05638440689987067
aF0.03681440586141056
aF0.058512990602542676
aF0.03211832256741507
aF0.054214733859542466
aF0.037804059288333317
aF0.05747794097308644
aF0.032907045285629995
aF0.05276369168356984
aF0.037360992852903896
aF0.056595933292703036
aF0.03336070622048852
aF0.049835567923096256
aF0.03657031169632744
aF0.053526901978167965
aF0.03342146469183963
aF0.04885376691577446
aF0.035880194030233716
aF0.05295406027336479
aF0.0332535454147684
aF0.049327015173665244
aF0.03660344563161383
aF0.05139837893164388
aF0.032713773813513355
aF0.050188584360070274
aF0.03835455635797576
aF0.04931167400881043
aF0.03236845490801484
aF0.05295535579771995
aF0.04053916322682556
aF0.05000683900971126
aF0.0335957195040386
aF0.055251957994409184
aF0.04292697830736317
aF0.05199136210808285
aF0.03494202041498461
aF0.056912006059840786
aF0.04307449623447984
aF0.05334172642180728
aF0.036881035545510484
aF0.058685149115928315
aF0.04117467426710087
aF0.055933918656491735
aF0.03745327940197625
aF0.06068367398691469
aF0.038894965785657855
aF0.059744032448134886
aF0.03750797906293875
aF0.061419956418182584
aF0.03795278795278786
aF0.0637860082304525
aF0.03600275180268546
aF0.060407956417078267
aF0.03586632338321131
aF0.06589051275699759
aF0.03373157092018293
aF0.059040870555485105
aF0.035788130185066915
aF0.06479052169350143
aF0.03342745936045172
aF0.0569679492044217
aF0.03610034672649389
aF0.06329568363204534
aF0.03367474013266568
aF0.05534635699663864
aF0.03548805617034258
aF0.060552583687199964
aF0.032000810147092246
aF0.05342004706835019
aF0.03596755267588379
aF0.058441558441558274
aF0.030498281786941504
aF0.05146426584391267
aF0.03510692464358443
aF0.05779610817394176
aF0.030104382028137686
aF0.049341190157052045
aF0.03593502579557635
aF0.055337063092006714
aF0.030320611457255932
aF0.04775607047301719
aF0.03700015320974404
aF0.052041522491349336
aF0.03102848061350614
aF0.04483617069429415
aF0.037130607870157616
aF0.04928176795580096
aF0.032083533486713944
aF0.04437177713495147
aF0.038281669264777184
aF0.04959659593280269
aF0.03269424823410688
aF0.04339265429761443
aF0.03875512295081957
aF0.04816044260027649
aF0.03404900227330125
aF0.042056900512457925
aF0.04091060749942242
aF0.046171700146445116
aF0.03414177688981049
aF0.04175824175824165
aF0.04277512942744363
aF0.045804900958642855
aF0.03404082873208036
aF0.04168775944112574
aF0.04537669044149591
aF0.04674009298206761
aF0.0359776026755174
aF0.04269668618949813
aF0.049360053031461806
aF0.04784556667957285
aF0.03785168835781506
aF0.043548795944233096
aF0.05261952039101865
aF0.04875964718853349
aF0.038918809064119396
aF0.04513906479558223
aF0.054587039390088805
aF0.05061518180819496
aF0.040500736377024935
aF0.046390316781038596
aF0.055627491304237296
aF0.05116279069767428
aF0.04186660573285591
aF0.04689123767520836
aF0.05463291139240492
aF0.05117992088391747
aF0.04235797843871845
aF0.04647565922920881
aF0.05117722764781575
aF0.05114796960535977
aF0.040972098128813104
aF0.04689875342049243
aF0.04833031583182446
aF0.051109781307800965
aF0.04093732354601909
aF0.0468805523123
aF0.046818878255845964
aF0.05066354835200682
aF0.039686012096255205
aF0.04680829436877402
aF0.045793075684379916
aF0.04988859301124925
aF0.038968732292793386
aF0.04760814249363855
aF0.04466357308584675
aF0.05005558719054191
aF0.0390495867768594
aF0.04943207864310077
aF0.046612096407457816
aF0.048523491746143115
aF0.03821606676830046
aF0.050826730529158363
aF0.04928401558467831
aF0.046566119041206444
aF0.038675318631886356
aF0.05103157037828474
aF0.05066754490411154
aF0.04404966673833572
aF0.038824138824138724
aF0.052133062468257864
aF0.0503260704716646
aF0.04214600580582722
aF0.03802824213477303
aF0.05275718492941999
aF0.04999999999999987
aF0.042532624456258945
aF0.03739266198282582
aF0.05246410752469185
aF0.05017169982830004
aF0.043140522524459615
aF0.036297782525992035
aF0.05255641973734527
aF0.04795230034612554
aF0.044040893193435446
aF0.035812097342131935
aF0.05385341462792404
aF0.0430164496921989
aF0.04569250181212906
aF0.03569657907783828
aF0.055293186633650585
aF0.04177822682495569
aF0.04611422593019812
aF0.03543358487609986
aF0.05550312460145375
aF0.03978464727144038
aF0.045811764074779264
aF0.037209180875786514
aF0.054786135128930914
aF0.03761184975481513
aF0.04597515728343268
aF0.038073645532014595
aF0.052950615082902344
aF0.03616892301475036
aF0.04928797254573446
aF0.03758148715684482
aF0.05088107407124863
aF0.03622656783627201
aF0.052370362334562666
aF0.0364641457527704
aF0.04998856968680929
aF0.03469888043670541
aF0.0539637706743433
aF0.03626419202654353
aF0.04988075303191746
aF0.03497264991896263
aF0.054990093097738904
aF0.03788232850392055
aF0.05153932127616325
aF0.036087561685435816
aF0.056130627326323644
aF0.03849550626006536
aF0.052135231316725844
aF0.03827460510328058
aF0.05616722079904056
aF0.03953330902651169
aF0.05110416507839686
aF0.038610625522535434
aF0.05407032425776425
aF0.03919215113244954
aF0.04964809309652654
aF0.03984285895323776
aF0.04950197022767062
aF0.03866537869096405
aF0.04800856203654143
aF0.04054738976178398
aF0.04705044640411884
aF0.037566151359524395
aF0.04655612244897947
aF0.04083440925546178
aF0.044479158102441706
aF0.035982632659958824
aF0.04537682158078747
aF0.040789473684210424
aF0.04434730012097205
aF0.03520394907768242
aF0.045422067979993756
aF0.04224495998379079
aF0.047714924014672894
aF0.034905146238289164
aF0.04557654456685656
aF0.04202659911336278
aF0.051807029177718684
aF0.03621985999481453
aF0.04441099943880403
aF0.04147267206477722
aF0.053930227423272095
aF0.03559862165453264
aF0.043061713295622375
aF0.040308899860741765
aF0.053416627679775286
aF0.033953969485389104
aF0.04043249828675844
aF0.037385772706618775
aF0.052791711207959724
aF0.03424710724547634
aF0.0398176291793312
aF0.03828101342485102
aF0.051895171207607865
aF0.035958726537384536
aF0.04310016986537524
aF0.03785798846376656
aF0.050677151594582644
aF0.03753539236823639
aF0.044624078250513025
aF0.03623133670720337
aF0.050950008213327354
aF0.03957330558085068
aF0.04519028155068662
aF0.03635584893300739
aF0.0504254562368326
aF0.04116910882828377
aF0.04235979237878201
aF0.03729386252458511
aF0.05011227339941932
aF0.04231532755197983
aF0.04041681420405675
aF0.037812476351436475
aF0.051256061145659115
aF0.042687230427395
aF0.0403054516031151
aF0.03994135193892502
aF0.05144078010299098
aF0.04251308900523549
aF0.03986601365239668
aF0.0421236606803616
aF0.0505478291756604
aF0.04219298705382871
aF0.04167830037820128
aF0.04378764390454638
aF0.05030383955091683
aF0.041120365747917595
aF0.04262028277896439
aF0.04438948522475193
aF0.050134947247893864
aF0.03880659843721213
aF0.043258226946747254
aF0.043656172476407136
aF0.052459641194566045
aF0.03852441725556366
aF0.045273479393289295
aF0.0433234269317482
aF0.05509122692013532
aF0.03852369975889559
aF0.04433358915323601
aF0.04416557600020519
aF0.05435226808336724
aF0.04131680661068895
aF0.04256462759150232
aF0.04400575776269781
aF0.05259293503385622
aF0.04237491661107393
aF0.04227625611724604
aF0.0419623572971304
aF0.050939864919846874
aF0.04304839269967655
aF0.042104724631008
aF0.04315954628462655
aF0.05143647757792775
aF0.043037704655751574
aF0.042218924312982846
aF0.04649125067649396
aF0.050774060842264664
aF0.043103448275861954
aF0.0431164707990884
aF0.04932862555088773
aF0.050661031642826045
aF0.044084762006176004
aF0.04263961984568994
aF0.05224918843716171
aF0.05055693738509773
aF0.04557941058807829
aF0.04259557189918015
aF0.053305508321739435
aF0.05185605753372793
aF0.04557819500746734
aF0.04342159067675311
aF0.05342783505154625
aF0.05236308672298833
aF0.045188957384079215
aF0.04310432829726408
aF0.052868884136758165
aF0.051068081773744764
aF0.04451253931134574
aF0.04296375811480845
aF0.0541553573736589
aF0.05004181391459157
aF0.045355441307097934
aF0.04151020512427506
aF0.05358987603305771
aF0.04832312548903205
aF0.04561261625555992
aF0.04143597070905508
aF0.051935666786947644
aF0.046720138270004465
aF0.045771036865115654
aF0.04070449100270163
aF0.05266275236917992
aF0.04563663923776514
aF0.047443574389682046
aF0.03919372900335936
aF0.05384635155627508
aF0.04503059143439824
aF0.047880285706526034
aF0.04036195393778267
aF0.055230919062996424
aF0.045230643624982865
aF0.04827849412534403
aF0.04084654463761445
aF0.05559252623496274
aF0.046948612510552414
aF0.04753184278139166
aF0.04125947283815151
aF0.054322818139986566
aF0.04706521739130422
aF0.044527458144734564
aF0.04165496105222821
aF0.05385146716467534
aF0.0446360776656903
aF0.0437617657490518
aF0.04212379445833535
aF0.05351853743233568
aF0.042139164794716924
aF0.04513822558196642
aF0.042457529697279235
aF0.05456078060742278
aF0.03943768791137344
aF0.04675778159696634
aF0.04232358793816
aF0.053486711217670624
aF0.03964997146506498
aF0.048287325939449954
aF0.04219527760051042
aF0.05366214801766599
aF0.04109626323381313
aF0.04877584330794328
aF0.04383968079392269
aF0.05210221325913243
aF0.04273923347225615
aF0.049707840739230735
aF0.04502636563763875
aF0.051094519782619606
aF0.04775196344033043
aF0.049839578008591956
aF0.0466422215954254
aF0.051838151460639866
aF0.05137775826106034
aF0.050255074351459754
aF0.04858974358974346
aF0.05229369392139504
aF0.0541869215347009
aF0.0505809240745743
aF0.05043870901534186
aF0.05093070703508715
aF0.055981531865776084
aF0.05092167144169941
aF0.05287598132279734
aF0.050006282196255684
aF0.056815685413005114
aF0.04879630380157237
aF0.05251439539347395
aF0.050372195956141105
aF0.05695036436133629
aF0.04833567491624325
aF0.051822090285597165
aF0.04992333023302569
aF0.05467139440916947
aF0.04788945674805968
aF0.051357281355240196
aF0.049812385101614114
aF0.05298741274116404
aF0.047313574231966304
aF0.04896474538332388
aF0.05138878377355621
aF0.050528564386262666
aF0.047227201129759255
aF0.04824327414069037
aF0.05143289988637785
aF0.04906955834672901
aF0.04695997389601901
aF0.047055537215266896
aF0.05367074527252489
aF0.04766296828798511
aF0.048803097224494114
aF0.04561252188031141
aF0.05493086157118965
aF0.0478064936475186
aF0.05052269563555954
aF0.044838611449451775
aF0.05525982256020265
aF0.04694797436732907
aF0.05015238924567309
aF0.045388884665095296
aF0.05524512654547279
aF0.046383498439408206
aF0.051236077152947423
aF0.046443864494387595
aF0.05349981082103656
aF0.04687033265444658
aF0.05089486977539977
aF0.04697867147977719
aF0.053491827637444145
aF0.0488580750407829
aF0.05082171719911034
aF0.0501108195551931
aF0.05192385173247368
aF0.05102844876776336
aF0.050449374134513426
aF0.053748593638130164
aF0.050686244827934074
aF0.05163095141095616
aF0.049866985178348304
aF0.05570074301819099
aF0.051384894808536266
aF0.05345024159834938
aF0.04781806339557086
aF0.055228088159917844
aF0.05010585744530686
aF0.05438477226376599
aF0.047769314472252314
aF0.0529711462147007
aF0.04950944538323779
aF0.054357579877634114
aF0.049141923181694226
aF0.04971275373420132
aF0.05019032493886901
aF0.05384720141631471
aF0.04870023928649105
aF0.04757900101936787
aF0.04983983655762088
aF0.051658806531635765
aF0.050133289810129884
aF0.047183009029632336
aF0.049772612430520335
aF0.0504588405086729
aF0.05190556676298988
aF0.04639044229791549
aF0.05069449696236343
aF0.05137564696268033
aF0.05355922940292375
aF0.048227671198068735
aF0.0524680442580709
aF0.05318974471109152
aF0.051793918179829215
aF0.04818725353008511
aF0.05298063536261219
aF0.053601706503308935
aF0.05022406820417518
aF0.04686424912718828
aF0.05791300382539949
aF0.05368077102611259
aF0.048316571928290204
aF0.04561950521365762
aF0.05961138450611318
aF0.055301695661748355
aF0.045709133630228556
aF0.04425253583382292
aF0.06078007877016882
aF0.05458455091801275
aF0.04554022674498007
aF0.04204603580562649
aF0.060039720934969544
aF0.05517812758906364
aF0.045147403411258114
aF0.04163144006353588
aF0.060688174242036756
aF0.05503344574050512
aF0.047739513628202904
aF0.046877809457758476
aF0.06073747145313166
aF0.05475280961080647
aF0.0492969216569845
aF0.05263428689030651
aF0.058477730714927324
aF0.0541145890941266
aF0.0495921519742011
aF0.05670645616737246
aF0.05447231545773641
aF0.05561251350827106
aF0.048612424676412434
aF0.05920985120574638
aF0.05321649379183472
aF0.05589165787866999
aF0.04936838695746046
aF0.0584545268332649
aF0.05237015716141508
aF0.054511694934042634
aF0.04932614555256051
aF0.05633010155790321
aF0.052394752898108465
aF0.05023400072000207
aF0.047143202514304004
aF0.05562087827820649
aF0.05330690855502184
aF0.050634316964161645
aF0.04355293170535343
aF0.054233479726279094
aF0.05530152923842896
aF0.05040501553484229
aF0.04283675722247639
aF0.052763561924257796
aF0.05634983112826619
aF0.0524242760457116
aF0.04351689780530485
aF0.04885028104241173
aF0.055421441821462004
aF0.05483014274648651
aF0.04366258033158707
aF0.04609367010941802
aF0.05497495359422266
aF0.0578772802653398
aF0.043909424989191405
aF0.043143573218761076
aF0.05409877800407318
aF0.06100127374425413
aF0.044235816130515825
aF0.041875319366377
aF0.056309345009291405
aF0.061929469215615374
aF0.04485337958696936
aF0.04293536666496074
aF0.05676245648804518
aF0.062039636434388465
aF0.045562706181385415
aF0.044851774102708394
aF0.055613477431659106
aF0.06475459952198304
aF0.04529220779220767
aF0.04707236001022744
aF0.05239908606245226
aF0.06312633595203047
aF0.04450339730922269
aF0.04967878989531865
aF0.05063515809224359
aF0.06343231562804945
aF0.0431029817630823
aF0.05160895507165064
aF0.047662416514875405
aF0.06646778375665635
aF0.04108221838584365
aF0.052871166268246644
aF0.04798241402834968
aF0.06880031196902574
aF0.04143698405442458
aF0.05165273507965128
aF0.046750629722921794
aF0.07002754361071677
aF0.04153114163597742
aF0.04820041626478489
aF0.0462949007786987
aF0.06980045086415611
aF0.041986165478041605
aF0.045583900802927006
aF0.04600411378116679
aF0.06756419153365699
aF0.04246648793565672
aF0.04458517727249594
aF0.046332822432724324
aF0.06360922209321594
aF0.042732752846617435
aF0.04167197006338609
aF0.0474116225198911
aF0.05909630406580347
aF0.044517325734562636
aF0.03903827580948498
aF0.04665978394983998
aF0.05659647377438773
aF0.04465442764578821
aF0.03686121195196863
aF0.0462755371942463
aF0.05394282557657767
aF0.04410851666891606
aF0.035905639775526174
aF0.048179384879551417
aF0.05241846017306397
aF0.0434841286979053
aF0.03709919393800687
aF0.04877740410144878
aF0.05325938518993324
aF0.04227594021475195
aF0.04028079132099543
aF0.05044276978508525
aF0.055798687089715374
aF0.0416217672413792
aF0.04154584413251548
aF0.05056938323185476
aF0.05811329271044894
aF0.04183513936061232
aF0.04333161688980421
aF0.05018468984842682
aF0.059329466685528194
aF0.04119930974978418
aF0.04558007484836741
aF0.04964177353968524
aF0.05918580670678289
aF0.043030794165315925
aF0.04769417789617968
aF0.04947185793743927
aF0.05938302616352894
aF0.04575251923285284
aF0.051492692028609795
aF0.049573261102877166
aF0.0610727861466984
aF0.046914383283193625
aF0.05487264961716742
aF0.04936854190585521
aF0.064173083975064
aF0.04698948279125085
aF0.05661462827854905
aF0.04963305802030314
aF0.06911648401310566
aF0.048077964266377775
aF0.057837384744341844
aF0.04977085946900829
aF0.07211687907988788
aF0.04838753424285972
aF0.05623446290723523
aF0.050689001588033265
aF0.07269598578239139
aF0.047646227440747854
aF0.05331558756752511
aF0.051843878936982515
aF0.07405114931210062
aF0.047749830047586546
aF0.05189146882337581
aF0.05354947756607239
aF0.07447557370125278
aF0.0494952251023191
aF0.051692660789734356
aF0.054749003169409935
aF0.07608143928712403
aF0.050268663229959216
aF0.052011673962893336
aF0.05534555856362043
aF0.07495419309372776
aF0.0493194031479308
aF0.05413060991138469
aF0.05545055169595409
aF0.07149911119889373
aF0.05169729906873842
aF0.054689324166558424
aF0.05387721719572649
aF0.06724371264238167
aF0.053811046432182624
aF0.052956111715632796
aF0.05141033822590925
aF0.06441700496165971
aF0.05426632368233798
aF0.049851171217807556
aF0.04838915064306622
aF0.059677510289225744
aF0.05391566265060226
aF0.04852834490620777
aF0.046239824431571576
aF0.05727977448907665
aF0.05382172579938662
aF0.04561703450419634
aF0.045222669999489755
aF0.05505336374644461
aF0.054632413227657675
aF0.042804581022956825
aF0.04528676526741836
aF0.05396485091257848
aF0.055648135500614516
aF0.04047995438878368
aF0.04512309763967569
aF0.052630094485967976
aF0.05573734729493876
aF0.04085759469058657
aF0.04552502478330483
aF0.05238698774820433
aF0.05408049569258348
aF0.0420013473596931
aF0.04693690947881731
aF0.051356289529163594
aF0.053935504833075965
aF0.0424815438414712
aF0.050199223409384944
aF0.050719748088168995
aF0.0514523269625309
aF0.04356921487603294
aF0.054786532806003305
aF0.05118464741966331
aF0.05280741459208952
aF0.047120418848167415
aF0.06012223071046585
aF0.050935170862044576
aF0.05418838974580606
aF0.0491025108943763
aF0.061500114454307135
aF0.0502528089887639
aF0.05212062045775016
aF0.04860084545761029
aF0.061707695043568676
aF0.04894947964879786
aF0.049175876395036115
aF0.04880203731614768
aF0.058036507654421136
aF0.047358987285049996
aF0.04727490083138606
aF0.04856592577169317
aF0.05565301400859315
aF0.04619824060066104
aF0.04513851167843551
aF0.04751872659176017
aF0.054394794367342646
aF0.04620369853064404
aF0.043421765024363713
aF0.04640504153537656
aF0.0548439564907999
aF0.04663111160751669
aF0.04300755939524826
aF0.04792931793896101
aF0.05711310884250074
aF0.046881107946612925
aF0.04603883181842616
aF0.050405909838419034
aF0.057636081661708846
aF0.04905544548929863
aF0.04696688955127676
aF0.052513500117392184
aF0.05520756726599534
aF0.04924073246985247
aF0.04638154373193436
aF0.05343212711002099
aF0.05481256332320148
aF0.051800167457437755
aF0.046717508399551896
aF0.0537491185457963
aF0.054755262490489336
aF0.052665257066547816
aF0.045472751061386756
aF0.053688288571278844
aF0.05410405210207533
aF0.05347905890205224
aF0.04363568595085316
aF0.05471594331962583
aF0.05194147724396281
aF0.05228522241350571
aF0.040688741721854195
aF0.05599790466212662
aF0.0519352140521632
aF0.05031900138696241
aF0.03984694550732276
aF0.05840314136125639
aF0.053213106426212714
aF0.047883106440790614
aF0.04065255266353402
aF0.060823366222617546
aF0.0517237005656882
aF0.04665892244717323
aF0.041050081626204535
aF0.06399916204043138
aF0.05190917163516414
aF0.041975580850535946
aF0.04002312564055386
aF0.0664970358323276
aF0.05172151513614915
aF0.03910937413992393
aF0.04019558873787418
aF0.06669637941430913
aF0.052254124325283056
aF0.039038625664179614
aF0.04058092591621653
aF0.06502553358648666
aF0.05251569143551313
aF0.03812672176308529
aF0.04249061162320428
aF0.06367503413506967
aF0.05256098795424625
aF0.037725442612100715
aF0.043006219036576254
aF0.060953878406708434
aF0.05254498974917094
aF0.03823959800104906
aF0.043762057028091106
aF0.0597622109655913
aF0.05242221546569359
aF0.038983332410432364
aF0.045784729586426175
aF0.05884516366311128
aF0.0530251184954248
aF0.04153965526797084
aF0.04724535128089157
aF0.056827709075665325
aF0.05333164428679996
aF0.04061531651173074
aF0.0469811170000265
aF0.053610675039246325
aF0.05335968379446627
aF0.03861366968163074
aF0.04745636043345954
aF0.05224853923205328
aF0.05260226812474673
aF0.0388029980363414
aF0.04557225618709441
aF0.05266312278507387
aF0.051041851279843904
aF0.037502078829203284
aF0.04250080291189368
aF0.05544858451290576
aF0.04998225781923239
aF0.03502884402041259
aF0.04020800943547944
aF0.05815407052450633
aF0.048345797946507674
aF0.033023307313292276
aF0.03923928743379864
aF0.06000625065110933
aF0.046727314193041464
aF0.03253652058432926
aF0.039184785512046474
aF0.060052151238591756
aF0.04533711564763678
aF0.03270833910322089
aF0.03838480568190876
aF0.05766371958375699
aF0.043048622900144315
aF0.03618931500775871
aF0.039321674615792154
aF0.053905045595881856
aF0.04264739560803063
aF0.0390709249274159
aF0.03995763272871696
aF0.051584802686817664
aF0.0435416613369489
aF0.03997131113624441
aF0.03922863558314611
aF0.04991213575681262
aF0.04362510554461008
aF0.04130861263850117
aF0.0367904418537329
aF0.05094389092815928
aF0.04451197711834096
aF0.04169194286659669
aF0.034297401473634435
aF0.05464452244983482
aF0.04737110770801417
aF0.043385863715397446
aF0.032875996341303976
aF0.05765817498433896
aF0.05006372673973986
aF0.0442877602732179
aF0.031140967557152444
aF0.06023091558289228
aF0.05185109689912591
aF0.045093130107023836
aF0.030133291841709375
aF0.06143158223401748
aF0.05289820023928912
aF0.04602188376312738
aF0.029398847813169985
aF0.06028830141548693
aF0.052558045013463256
aF0.044085755853852576
aF0.03021864686468639
aF0.05986557599124665
aF0.050458483205836034
aF0.04184834773070056
aF0.031996906020368615
aF0.05849872375892051
aF0.0495374816761865
aF0.03934919332786426
aF0.033141210374639685
aF0.05754459054810556
aF0.049185297461159405
aF0.038155846284106634
aF0.032258893687024386
aF0.054874246518395196
aF0.04762264721445297
aF0.03560523446019619
aF0.03132883694588881
aF0.05260823047415241
aF0.045082895167173904
aF0.0377466790575629
aF0.03234473493851392
aF0.05084345567594498
aF0.04259589092642289
aF0.04135647033063269
aF0.03427001244296963
aF0.049466435367712634
aF0.04223798661419286
aF0.04615934458679263
aF0.03573102765769041
aF0.047455223488628476
aF0.04276059593497967
aF0.0491107128084929
aF0.03898980948161266
aF0.04727234633213721
aF0.043513295729250494
aF0.05261122925239566
aF0.04163184287505212
aF0.04724636163752474
aF0.044713082623099955
aF0.05584937006783869
aF0.044279191128506076
aF0.04855846165953973
aF0.045696202531645455
aF0.05528126040164191
aF0.044448490207807625
aF0.04797057664521201
aF0.0478965719084823
aF0.05514298381733525
aF0.045267917467906954
aF0.04857278031856161
aF0.04950545528703974
aF0.05448096214598444
aF0.04362120741431075
aF0.04944997105110782
aF0.05003185930929004
aF0.053200355595065967
aF0.04139371743952122
aF0.04813721873847276
aF0.050446314715633635
aF0.05123223801065705
aF0.03913647591601472
aF0.047587574355584805
aF0.05017089221037583
aF0.0484861902916919
aF0.03590388018362261
aF0.04621948957146252
aF0.05224452275164687
aF0.04716355191861095
aF0.03255051604476648
aF0.046137481717856546
aF0.05382552050070238
aF0.04428583239176552
aF0.030510123115513498
aF0.04782075873827779
aF0.05368544720845877
aF0.04093278463648822
aF0.029584283189467406
aF0.04822003887424435
aF0.05236736150043307
aF0.03819463417299591
aF0.02935516153036866
aF0.04843365764995176
aF0.051740357478833356
aF0.03499129299085754
aF0.029923648422838556
aF0.04796406705344478
aF0.05102870205740398
aF0.032416928238986814
aF0.031567311894295694
aF0.04921676261882434
aF0.0507283154849514
aF0.03245682782477088
aF0.031191339453315765
aF0.051549991941116285
aF0.05077887922314371
aF0.03172376584839484
aF0.030098264256054393
aF0.05332796564680608
aF0.0513047436027105
aF0.03210342041475887
aF0.030088220836674954
aF0.05251312828207037
aF0.05176630777377127
aF0.032378848692185346
aF0.02991917935965177
aF0.05192302545298811
aF0.05338069326884307
aF0.03352060428483096
aF0.03077640475635338
aF0.05210565795113573
aF0.05186263681092466
aF0.03395444019602554
aF0.03296960249415424
aF0.051152815013404684
aF0.05076853752565951
aF0.03448925237416256
aF0.03455717926049187
aF0.052481812568789955
aF0.04999999999999987
aF0.03726841878500636
aF0.036536562548723985
aF0.05278694683734521
aF0.04860571743542192
aF0.03948077130238059
aF0.03592270781999731
aF0.05280953147641267
aF0.04810780967677161
aF0.040687525177923886
aF0.034732646617319646
aF0.05261884926500214
aF0.048053941177950414
aF0.04265262818618881
aF0.03274617831923635
aF0.051937942881683345
aF0.04816149600544356
aF0.042423104770587965
aF0.03124919227687448
aF0.05007110848740159
aF0.04591090257807364
aF0.040030009109908254
aF0.03208845588803827
aF0.045541000294676934
aF0.04616124784766523
aF0.039724263719757416
aF0.0336537222666013
aF0.04337478272496311
aF0.04652402345237177
aF0.03891363855939016
aF0.03340028842191998
aF0.04245358728799946
aF0.04548914146539464
aF0.03786048010310929
aF0.033460017461866276
aF0.04241208717743002
aF0.045581371753246634
aF0.03809165636920422
aF0.03371160693700839
aF0.042477970913570876
aF0.04819277108433723
aF0.03917503567486056
aF0.03287825331083491
aF0.0425697008615614
aF0.04870229007633575
aF0.03955274147918621
aF0.030991894034316025
aF0.04178785857238147
aF0.04860458620076678
aF0.03865568902685912
aF0.029802678662713345
aF0.04157444198511949
aF0.04739781670474728
aF0.03725013506212848
aF0.02859920188273808
aF0.040585584384416305
aF0.04673730324486769
aF0.03580604159342284
aF0.028092479622699472
aF0.04195766913685546
aF0.04339095068632424
aF0.03399924205511333
aF0.02883331621649371
aF0.04282370464943067
aF0.039131429733784126
aF0.03259695365669214
aF0.028014366341713625
aF0.044518096248177
aF0.03661199410958199
aF0.03374547810593371
aF0.02771025765678165
aF0.04429693491656297
aF0.03564271036809651
aF0.035729683121362266
aF0.02860356330359646
aF0.044393447811980576
aF0.036671403918383826
aF0.03597606985016698
aF0.027351431417115643
aF0.043301901701522295
aF0.04057248900526211
aF0.03552917796814986
aF0.026310422190495546
aF0.04162945842307075
aF0.04216943985774154
aF0.035870469240468876
aF0.025926588163171407
aF0.04057060594163057
aF0.04311504964070781
aF0.03549424055719251
aF0.026725659190301967
aF0.04095732200119915
aF0.042789424320008
aF0.035298847493969346
aF0.02724858266510029
aF0.04198115662901451
aF0.04238340131228931
aF0.03653825517759406
aF0.0268071213589756
aF0.04320054228803826
aF0.04152853346830307
aF0.03657133684689254
aF0.025286829988043383
aF0.04534294520190136
aF0.04063456721402717
aF0.03801794105083287
aF0.02541812820903862
aF0.04483354271356772
aF0.04032992612083787
aF0.03953506971288411
aF0.02672900045734024
aF0.043184251063940776
aF0.03948934876769918
aF0.03878160674277169
aF0.028269720101781096
aF0.04153313009718845
aF0.04055873015873005
aF0.03678572382657004
aF0.029047230439661252
aF0.03976653696498044
aF0.04334389047813638
aF0.03560814971486698
aF0.030315413101774918
aF0.038863513199659264
aF0.04509263512478935
aF0.03537167050752978
aF0.033548981000843754
aF0.038554402548032364
aF0.04902737660080251
aF0.03443758188283726
aF0.037383656829311974
aF0.03849702686077497
aF0.052083599805581714
aF0.03522760606949509
aF0.040638494756323154
aF0.03746994731188286
aF0.054700286415711806
aF0.036057117026085474
aF0.04297116374871256
aF0.03495110929561634
aF0.0547455506472945
aF0.036725710649130154
aF0.04444559024465687
aF0.033842375872918336
aF0.056099982182401156
aF0.037618302802152545
aF0.04462396118308975
aF0.03252845278375876
aF0.05455516557301985
aF0.03737229368482336
aF0.04314353621990275
aF0.03266008839551847
aF0.05170313213868711
aF0.037781647406469214
aF0.03977786387705014
aF0.03384765977177292
aF0.04854982678837826
aF0.03915201436189862
aF0.035044740710178095
aF0.0361159225459527
aF0.044167610419025935
aF0.04095248140920826
aF0.03156653075877623
aF0.037573750129386095
aF0.040195464227540306
aF0.04273324018664476
aF0.028835092921598124
aF0.039261328367473515
aF0.03761504601840727
aF0.04246636653239596
aF0.025425675848160658
aF0.04023702323655737
aF0.03700185009250453
aF0.04292716348687666
aF0.022720333808263733
aF0.039230888509846386
aF0.036874078148046205
aF0.044315484041149975
aF0.021942857142857087
aF0.03851511711897627
aF0.03722766340195873
aF0.04457185130386524
aF0.023415452673327678
aF0.03538256273413035
aF0.039367909644136036
aF0.04340245674283438
aF0.024659345129143723
aF0.03284353880810968
aF0.040106082213715526
aF0.040905134899912855
aF0.024676642150646654
aF0.032372720996241
aF0.042270440723777954
aF0.03905631498390236
aF0.02581477080225525
aF0.03096813756803017
aF0.044019808914011194
aF0.03846052109509314
aF0.02606802996558001
aF0.029730764323082734
aF0.04690511350837222
aF0.03808236603593566
aF0.026544865630851695
aF0.029341347868167618
aF0.04702061211742649
aF0.03886147806249658
aF0.026851758030195492
aF0.027794730953107444
aF0.045991918990372506
aF0.03997562784783289
aF0.027136595130108628
aF0.02879541303024145
aF0.045087483176312136
aF0.039897210374334274
aF0.026118647499493757
aF0.030413717880425056
aF0.04429526851666988
aF0.040324927896700336
aF0.02508670227577646
aF0.030457880091069995
aF0.04198092003396423
aF0.03903610641891882
aF0.024626922394790786
aF0.030692868719610942
aF0.03998400639744092
aF0.0390878619124283
aF0.024682598008159893
aF0.030329949238578603
aF0.039037835129040244
aF0.040336668254724366
aF0.025550861392901348
aF0.029035620757163486
aF0.03747806467786403
aF0.040383444111961334
aF0.02702634373261863
aF0.027213482001934658
aF0.0366074118710454
aF0.039667019027484034
aF0.02866515266212458
aF0.026260156389292105
aF0.03803526448362711
aF0.03915106775639325
aF0.029546599496221588
aF0.026597917092097134
aF0.03865368118282273
aF0.03776717708141149
aF0.030415672485244176
aF0.027433718906745758
aF0.038726790450928285
aF0.036402964995119795
aF0.03067269076305213
aF0.02676336891567489
aF0.03925134500265202
aF0.03351778656126473
aF0.02878761305840195
aF0.027569306172461255
aF0.04124207858048152
aF0.03358681875792133
aF0.02662292125826481
aF0.02732324004689803
aF0.041309094602142785
aF0.03208937485143799
aF0.02576945230522645
aF0.027230237756553477
aF0.041522403258655693
aF0.03206688538469671
aF0.02384112594225032
aF0.027993109388458153
aF0.04143035173834522
aF0.033923889727496534
aF0.023115880258737342
aF0.029074622333560996
aF0.04296556642216778
aF0.03730432475457671
aF0.025179765991030428
aF0.030765724703737386
aF0.04466386984549257
aF0.03852796598910578
aF0.02714034647250809
aF0.03213370869157211
aF0.04487277939896574
aF0.04012033438049081
aF0.029468562686529656
aF0.03531508593252696
aF0.04361729342542838
aF0.040500186636804665
aF0.030811623246492906
aF0.0362509247684889
aF0.041838538597524934
aF0.04174461489122871
aF0.03146371402089223
aF0.03808890820317483
aF0.03993847731350925
aF0.04306514640543856
aF0.03191462711991775
aF0.0375609631539973
aF0.03627671541057358
aF0.0443532158093857
aF0.031100896804976064
aF0.03823122984799621
aF0.03468547912992349
aF0.04651037456211251
aF0.029281698938163573
aF0.03863595603494648
aF0.032592592592592506
aF0.04518234786361662
aF0.02615357740011473
aF0.037672634271099646
aF0.032639207880365353
aF0.042485153037916744
aF0.024417009602194725
aF0.03661503008577637
aF0.03353107416554209
aF0.04124098356259877
aF0.02333574079147256
aF0.03547916079616765
aF0.03261145204645729
aF0.039592306251839064
aF0.022153861420526378
aF0.033897004272301585
aF0.032456206870402585
aF0.03950037365218309
aF0.022014989981942706
aF0.03252864157119468
aF0.033421817722158936
aF0.04046781756180722
aF0.022700915439089933
aF0.03362573099415196
aF0.03363744345320823
aF0.042237806821804155
aF0.02451161530313102
aF0.033579790511398554
aF0.03430479659987848
aF0.04298762678561934
aF0.025985221674876782
aF0.03552411575562692
aF0.03520040460235166
aF0.044198015599299506
aF0.027073633385066322
aF0.03581089784876971
aF0.036280549383962746
aF0.04670958131616735
aF0.027720865937646496
aF0.03595082854418463
aF0.03660929951690812
aF0.04746683714240038
aF0.02736103215600972
aF0.03682938120467045
aF0.03729017991757956
aF0.04657045478751718
aF0.02795539033457242
aF0.037424070832904256
aF0.03574207474711971
aF0.04534085466446691
aF0.03000772624180637
aF0.03698746493011753
aF0.03702681684770329
aF0.04476936188345572
aF0.03149153305485372
aF0.035767434700056354
aF0.036502015371904874
aF0.04518585578868877
aF0.03253948357984449
aF0.03683250712762942
aF0.0358573717948717
aF0.044487015751383446
aF0.03349306304724144
aF0.03722160856944685
aF0.03652348656116544
aF0.04518136368471427
aF0.03393409245154957
aF0.03704275748449034
aF0.03695964148140679
aF0.04310505195460936
aF0.03499747856782644
aF0.03602022912581268
aF0.03865614248127899
aF0.03988860893780655
aF0.0350381178371282
aF0.03708598973721029
aF0.03953913308293564
aF0.03784342845019614
aF0.03559420582956231
aF0.0374523086506267
aF0.039787326057645726
aF0.03780933707805618
aF0.035211624139327574
aF0.03803881830228379
aF0.041318939335936396
aF0.03840543192849365
aF0.0351775350381427
aF0.03644995589685042
aF0.04154727793696264
aF0.03847580687900779
aF0.03299511652033088
aF0.03675459756698561
aF0.04120051085568316
aF0.03908270438591851
aF0.030853314527503447
aF0.03752690681812278
aF0.04128580912015513
aF0.039135129440889
aF0.029642282958199283
aF0.03886164941499977
aF0.0419671628049715
aF0.03891122146028733
aF0.028379462494985887
aF0.03882108543235513
aF0.0439208245730987
aF0.0381225499223867
aF0.02741543777071173
aF0.038872287904378224
aF0.04390945761927997
aF0.03810323562600037
aF0.027922468195933015
aF0.039562157935887306
aF0.0456263984979809
aF0.03871475409836055
aF0.027846767517121927
aF0.03936206311503213
aF0.045121510757958706
aF0.03853509024703314
aF0.02646431707011156
aF0.04015885872547216
aF0.04347489550544392
aF0.03928580751259485
aF0.027366306803916576
aF0.04023845007451554
aF0.04265232052305067
aF0.037985243892900804
aF0.0283033108584079
aF0.04095750234937861
aF0.04210769705066272
aF0.03731052234731276
aF0.029748743718592888
aF0.04193178262230092
aF0.04267524115755616
aF0.03706497424959674
aF0.03167988753890945
aF0.042465503299684265
aF0.04106491237086899
aF0.03723473506053889
aF0.032852302672857235
aF0.04247829148087292
aF0.03876387176325514
aF0.03676241024039953
aF0.03408976804900082
aF0.042674661105317924
aF0.036405210286976755
aF0.0361147971795071
aF0.03625172716995343
aF0.04286720033375911
aF0.033855236139630304
aF0.03747781605595564
aF0.03657707131521264
aF0.045225342913128554
aF0.032925079430152625
aF0.0387138936086785
aF0.03715279528154449
aF0.04589150535662821
aF0.030909370042474717
aF0.03935300112362476
aF0.0376200101061141
aF0.04674098360655725
aF0.029654414957472272
aF0.04067079382493524
aF0.03659922709706742
aF0.048724141552031794
aF0.02944703870984197
aF0.04075611602830202
aF0.035243068694972034
aF0.04969547411529967
aF0.030632840244245084
aF0.0408003343433287
aF0.034743774127620836
aF0.0510987277888759
aF0.033455252321149875
aF0.041413482853044616
aF0.034208733822750234
aF0.05177383011056948
aF0.03577198246018915
aF0.040022914876441835
aF0.033664264476137594
aF0.05104256599429649
aF0.03748876620875584
aF0.04144889096913425
aF0.033246988406307285
aF0.05061834915156731
aF0.037147900836595193
aF0.042849713988559426
aF0.03198678480252282
aF0.04876069830135826
aF0.03825665859564155
aF0.04306282381733437
aF0.029430773054934054
aF0.04642267690131239
aF0.03915079930760605
aF0.04281321659370429
aF0.031017554299315603
aF0.04395950270156836
aF0.039075971193832944
aF0.04353386402192341
aF0.032510684552483925
aF0.042198516499357734
aF0.04031238942526401
aF0.04470372312532762
aF0.03184822942520819
aF0.0409889564786047
aF0.03980751303822015
aF0.04254313401087202
aF0.030993507288986814
aF0.0411170032130821
aF0.03912824389014855
aF0.03982382088456587
aF0.03043350621391518
aF0.0420174658787846
aF0.039009771330714114
aF0.038749310860833164
aF0.03035582822085882
aF0.04193261483729192
aF0.03739117306627739
aF0.038894736842105156
aF0.030479418410452815
aF0.041224447116641284
aF0.03595782692936756
aF0.038748489465664795
aF0.02850758729067419
aF0.04186947192128528
aF0.03420781246069866
aF0.03825552696528898
aF0.028150364140163243
aF0.044057027332160464
aF0.03243338449538275
aF0.038070732795967024
aF0.029071906969897622
aF0.04735873850197096
aF0.031545502685528325
aF0.039435657611265724
aF0.03030675147972584
aF0.04958047292143389
aF0.028113055723194457
aF0.04297285924679139
aF0.03134280735341032
aF0.051273264090261894
aF0.025853413654618407
aF0.045368570377764816
aF0.03226203063909304
aF0.053088215844464874
aF0.02628940905217777
aF0.04812385200734703
aF0.03262072867721215
aF0.05382233865205987
aF0.026220047672813884
aF0.0503908504275745
aF0.0320934703837905
aF0.053339677001559345
aF0.0266626421169131
aF0.051715525174181536
aF0.0320550784720165
aF0.05452380952380938
aF0.02564489364911745
aF0.05274256042594677
aF0.032206198827516186
aF0.05511623601597404
aF0.02735822890138423
aF0.05313283208020036
aF0.03164541290082944
aF0.055695330914483816
aF0.03244516488526409
aF0.053034704981247544
aF0.030810316263198162
aF0.05554230595966808
aF0.036889103721983264
aF0.0519239930132852
aF0.02902094447737594
aF0.05468089602704972
aF0.04140062318026245
aF0.05165366034931238
aF0.025656794253665193
aF0.05221339387060145
aF0.04280414481258784
aF0.054917530443123835
aF0.02399921555168773
aF0.048918776371307884
aF0.04246975599753936
aF0.0559455491792338
aF0.022940384379973013
aF0.045065451576368834
aF0.039666880204996695
aF0.0553437658286901
aF0.022711160004889323
aF0.04168092893441101
aF0.037718467719235295
aF0.053759718819895476
aF0.022620238647177906
aF0.041264822134387244
aF0.03532892890850181
aF0.051735603138715114
aF0.02375198340046375
aF0.040264043761834525
aF0.03451523404688565
aF0.050562544883900176
aF0.025204958032402826
aF0.042630969913738576
aF0.034087734003911616
aF0.05052524929344625
aF0.025260645035564588
aF0.04520814693963463
aF0.0368827474090631
aF0.05187396705230033
aF0.024716261209808674
aF0.04653303872053859
aF0.03793426754174787
aF0.050635271555283135
aF0.0253741843145816
aF0.044959735592686706
aF0.037799732167673045
aF0.05134545841310346
aF0.026286488841554857
aF0.04519937040923388
aF0.03731550397376047
aF0.05146025093503793
aF0.02690160249438033
aF0.044922028567684326
aF0.03515359221833018
aF0.05248912005094986
aF0.026568354889399185
aF0.0445899921404243
aF0.03242466995868177
aF0.05179917206241361
aF0.02659471493563056
aF0.043679786314714315
aF0.030104811213536985
aF0.0493355613909444
aF0.026006447078213174
aF0.04224284407267013
aF0.029159519725557387
aF0.05109430747111121
aF0.02634774162214661
aF0.04082750704372315
aF0.031238153006293044
aF0.05275670477615115
aF0.025309992706053913
aF0.04034845204872058
aF0.03590496191897969
aF0.05111230233181439
aF0.024565841319258586
aF0.03903442529034936
aF0.038824125696908164
aF0.05031057570787047
aF0.024260858985277953
aF0.03690333973926132
aF0.04097570870733799
aF0.04994752280739511
aF0.023513677811550095
aF0.03671033856531317
aF0.04275305288278442
aF0.05002284761981547
aF0.023511124064898418
aF0.03729833480313317
aF0.044119513619170804
aF0.04904222782636677
aF0.02399708242159002
aF0.03850738533298772
aF0.045884146341463296
aF0.048513763435095954
aF0.02338611449451882
aF0.039428748835765186
aF0.04564082983326958
aF0.047677720040713426
aF0.021503279128166318
aF0.03755832037325029
aF0.04375412415613409
aF0.046719202315857064
aF0.019678783582271934
aF0.03772803726225892
aF0.04125508425334098
aF0.04622186495176836
aF0.018966067178644113
aF0.0386827242953296
aF0.03831359831058139
aF0.044201851554556526
aF0.017564115161638947
aF0.040467207607628196
aF0.03581170699967458
aF0.043721104251850544
aF0.018204212341421312
aF0.041766881319988514
aF0.03541412075716379
aF0.042640733121376354
aF0.018702412340142378
aF0.041991555060487414
aF0.03471634208298044
aF0.04306514640543856
aF0.020395565322600506
aF0.042404570241495604
aF0.03534474181673456
aF0.04210667023125239
aF0.021424692698820108
aF0.04061759575077449
aF0.037438620105186976
aF0.041463675785641516
aF0.0229561611374407
aF0.038655155324864916
aF0.03912706934005833
aF0.042716730496263844
aF0.02452853445088124
aF0.03755574681167348
aF0.039578957895789475
aF0.045903482240839254
aF0.02709165310851445
aF0.03936987371436001
aF0.0394611885839955
aF0.04703553082191768
aF0.029904188067957253
aF0.040235550482515196
aF0.038672236536008105
aF0.04820822532802424
aF0.03203418296779285
aF0.04294780468851174
aF0.036392761494756246
aF0.048867858956879597
aF0.03356702256793907
aF0.043386024370682626
aF0.03284022928086898
aF0.04811760295613975
aF0.03408443023226981
aF0.043073974305843234
aF0.03054332599559728
aF0.047564270618763414
aF0.03365992806647641
aF0.04036663991092918
aF0.029172405158382295
aF0.046446409016853055
aF0.03298912773668264
aF0.036632124352331506
aF0.02885288528852878
aF0.045618885580603875
aF0.03339126117179733
aF0.034316520657301244
aF0.027402037715168203
aF0.04457266880177855
aF0.03415252972488922
aF0.032678723899712714
aF0.025341614906832233
aF0.043182537171780964
aF0.03443902924209261
aF0.030951273704335164
aF0.02376104876353157
aF0.0436280439699152
aF0.03376365441906645
aF0.031888249115649685
aF0.02289582400079632
aF0.0446682090650961
aF0.032773880060490285
aF0.03187179023974804
aF0.0217959244607001
aF0.04447715682666514
aF0.031202058692532213
aF0.033217189314750206
aF0.020548625950404957
aF0.043644957983193164
aF0.029763814506774525
aF0.034592895963732745
aF0.020242914979757033
aF0.04339816301286932
aF0.02797340556513167
aF0.03400519988673505
aF0.021171909944833704
aF0.04098964084766251
aF0.026547580864029936
aF0.03421553987951178
aF0.021886736140472998
aF0.04124413699132657
aF0.02548840425794654
aF0.033707575835607885
aF0.023158627894828428
aF0.040721501474849146
aF0.024627989043259323
aF0.0348707866621827
aF0.022959310722645492
aF0.04205668396214105
aF0.02292164740098089
aF0.03580318839044532
aF0.022866548493289382
aF0.04446165349284329
aF0.02222501571338775
aF0.0342796942110807
aF0.021531162167040506
aF0.042898645163041885
aF0.02133278633881177
asVall_dice
p26
cnumpy.core.multiarray
_reconstruct
p27
(cnumpy
ndarray
p28
(I0
tp29
S'b'
p30
tp31
Rp32
(I1
(I3
tp33
g7
I00
S'S\xdd\x92z#\xd7\xde?\xa4\xe5\xc7\xf5\xb2f\xed?f\xcc\x03\x93\x13#\xeb?'
p34
tp35
bsVcorr
p36
g3
(g7
S'\x88\xd2\xb1\x1c\x03\xd2\xd7?'
p37
tp38
Rp39
ssI1
(dp40
g2
g3
(g7
S'W\x19I*\x8f\x1f\xe7?'
p41
tp42
Rp43
sg13
g3
(g16
S'\x03\x00\x00\x00\x00\x00\x00\x00'
p44
tp45
Rp46
sg22
(lp47
F0.031790171520099594
aF0.031185031185031114
aF0.03619266675686637
aF0.03339595535418271
aF0.032687165775401
aF0.03187268855765991
aF0.0336331462320506
aF0.03255834473022448
aF0.031005344984364188
aF0.032592427119401246
aF0.03524496259855777
aF0.0362675900031073
aF0.031811219393078266
aF0.03409192324854968
aF0.034900750287272075
aF0.043031730014575525
aF0.029633394471084724
aF0.0326251558881168
aF0.03582358235823574
aF0.045303445487623994
aF0.03331777466604424
aF0.02914628723877272
aF0.03466804559455016
aF0.04419690980955793
aF0.032977756093233605
aF0.02566259991586027
aF0.03532113189707563
aF0.0417152335694431
aF0.03324535917851353
aF0.021750227489624206
aF0.03417205415268165
aF0.03869353469460694
aF0.03490180396338746
aF0.019280035335689002
aF0.030129800255565203
aF0.03852431525992166
aF0.034777194698923694
aF0.0188603798733755
aF0.026235086069885553
aF0.04052443384982112
aF0.033940415714634235
aF0.019686701477613554
aF0.030989192938491415
aF0.04383413380234043
aF0.03170321896002823
aF0.019692047527924837
aF0.03236755152959151
aF0.04572358017440011
aF0.03131689876630392
aF0.018870021337126557
aF0.03347487138010821
aF0.044317337356722934
aF0.0282339955849889
aF0.020741503143668984
aF0.03668772563176887
aF0.04709973131025752
aF0.02978309416941201
aF0.017817322272767777
aF0.03887718344321339
aF0.043369923900599266
aF0.0317896041795802
aF0.02067367670646939
aF0.04004711425206116
aF0.0436117523139328
aF0.03322044472171464
aF0.021511834846057967
aF0.04011688488198242
aF0.037450766594717196
aF0.03372142394243439
aF0.020715924531664133
aF0.03967931345980117
aF0.03663989677648987
aF0.03301781488592215
aF0.023080872340900414
aF0.042748402881609256
aF0.03887833761590875
aF0.03503355704697979
aF0.022464926300834614
aF0.04269535673839175
aF0.04054264774676429
aF0.03799143286460777
aF0.022922445356706928
aF0.04538006372325888
aF0.04019102452522809
aF0.03800214726670833
aF0.027097805099979964
aF0.04761796268027603
aF0.04137869332796519
aF0.03864228601973309
aF0.025507272003890132
aF0.047146007137823534
aF0.03853264137915665
aF0.04030997364777337
aF0.024612398826720717
aF0.04752804131686108
aF0.0450953252667767
aF0.03761895210715153
aF0.02761940679282111
aF0.04784819320864343
aF0.05006982296499831
aF0.03515720611468362
aF0.02858669516430664
aF0.04458498023715405
aF0.036009418873289414
aF0.032534437100829976
aF0.02876645538761573
aF0.04341556832263142
aF0.03541708275081545
aF0.02770273262766281
aF0.027312406313376184
aF0.041165266106442486
aF0.037387117530896984
aF0.0243227078395321
aF0.027565995328544295
aF0.03522378772389876
aF0.03528058572408141
aF0.023432496300713302
aF0.024562406544111126
aF0.03549899531145337
aF0.03795474711623771
aF0.027253481894150357
aF0.023807944823927264
aF0.03590110430544991
aF0.0373435697168722
aF0.02121077231248604
aF0.018326045397613618
aF0.03607142857142849
aF0.037926057510824826
aF0.02544659782778379
aF0.019766574525031767
aF0.04025185518326953
aF0.037854048650449765
aF0.029652191440281226
aF0.020269973178560392
aF0.0428137310073156
aF0.036112833230006115
aF0.029578126047977753
aF0.024346871569703568
aF0.04220895790324019
aF0.036637501384427874
aF0.027689483816089832
aF0.02592234290488539
aF0.03903029216705494
aF0.03402487793022683
aF0.022265398186609445
aF0.02985965300033146
aF0.036711605965076936
aF0.03449651046859414
aF0.017480019645488194
aF0.033316361543399745
aF0.03804871490353365
aF0.038054452259968403
aF0.019047831220620627
aF0.035142990260244415
aF0.037062009754343296
aF0.03949359202563181
aF0.020941244470133114
aF0.029435977305595662
aF0.03827312381165409
aF0.037001771479185035
aF0.02583589993574256
aF0.02995996441281132
aF0.04155174346899867
aF0.04114815554224609
aF0.02695638691385911
aF0.031747794983448416
aF0.042964095415814106
aF0.04302991157932238
aF0.02966402986401202
aF0.03010671577219171
aF0.04349785891368031
aF0.04359581694672854
aF0.029780146568953964
aF0.02997082486075495
aF0.04538365917052764
aF0.045071430168347054
aF0.028964936015436073
aF0.028555604785112917
aF0.04373375522657917
aF0.044445934169068745
aF0.027541856081605438
aF0.027813655190843032
aF0.044108010394305626
aF0.04156848797403627
aF0.02844444444444438
aF0.030427319943826418
aF0.045401103373428495
aF0.0380781499202551
aF0.030341424379834555
aF0.029782232669534683
aF0.04604547925348784
aF0.037684761862488265
aF0.03069922308546053
aF0.02607375462066532
aF0.046138165345413255
aF0.03441089086958442
aF0.031581296730275564
aF0.025579764148875486
aF0.045721780028943455
aF0.03222519988483083
aF0.029285905322278618
aF0.025486500701262214
aF0.0453806923319943
aF0.031457322231621995
aF0.029452483029653382
aF0.024549307217671932
aF0.04601953574409518
aF0.03272120200333883
aF0.02650779838007893
aF0.026006545566367154
aF0.04486804837476949
aF0.03463078291814939
aF0.025464617583988505
aF0.03296243252175821
aF0.04049684454652891
aF0.032375851996105084
aF0.027960268167447636
aF0.036782117959499754
aF0.04052727840478199
aF0.03782880071333027
aF0.030180139810001724
aF0.0375856487127746
aF0.04241653843580642
aF0.039680057196478755
aF0.03428867325573534
aF0.03555182617144363
aF0.04535370963766319
aF0.04083368779242866
aF0.03407147357998012
aF0.03600264725347444
aF0.047596543343235105
aF0.04311079227009809
aF0.03288466732691088
aF0.04019766436944614
aF0.047320320433261766
aF0.044971639506617346
aF0.032890746107703636
aF0.044480613587210886
aF0.04645933121950112
aF0.048530601240226366
aF0.036810368103680956
aF0.04678034552389489
aF0.044408931304582594
aF0.04535076330751657
aF0.04213222129048332
aF0.047907414883595636
aF0.04411268745643806
aF0.04479078283392121
aF0.039296373338156734
aF0.0450561245024819
aF0.04554557933346825
aF0.039658734919682644
aF0.03655748466396533
aF0.044631437226522956
aF0.0434489424352086
aF0.03693609855534867
aF0.029147628801008282
aF0.04109160748581884
aF0.04096228868660589
aF0.03869345615557475
aF0.02492253805738914
aF0.0349255720950899
aF0.04155604553840606
aF0.0387886884880872
aF0.023773314845462218
aF0.030881863560732043
aF0.04331950955643697
aF0.039114210830260676
aF0.019294107174648346
aF0.024068666489691123
aF0.04450629016200551
aF0.03680424919774253
aF0.019635717458907107
aF0.02073375818728974
aF0.04690744920993217
aF0.037985337438259895
aF0.023069051432639206
aF0.02445652173913038
aF0.04435757219686346
aF0.037385453096639876
aF0.02373206168107669
aF0.027463543968183766
aF0.03975191568728784
aF0.03751076943468744
aF0.027867239219896162
aF0.03122089671382316
aF0.040147877640269516
aF0.03820965529448197
aF0.03135520940880722
aF0.03621658853067292
aF0.038608993730548824
aF0.042420336873916616
aF0.03434307062159599
aF0.035711910620469425
aF0.04034595080309999
aF0.04257452212271077
aF0.034437056339293656
aF0.036223343932756585
aF0.04420374707259943
aF0.040790143119428315
aF0.03569583286532621
aF0.03738213840953559
aF0.04370590085838829
aF0.039287770740133676
aF0.03450529637142205
aF0.03792504122287081
aF0.04192626914685431
aF0.03985845907330743
aF0.03353417732945178
aF0.03503170591104599
aF0.042791829012859973
aF0.03651034236804557
aF0.03177407092706044
aF0.03237124321461664
aF0.04173701627608554
aF0.032201509098979064
aF0.03137500279335844
aF0.029864870812975855
aF0.040064714738332154
aF0.030906152449688876
aF0.027593597213850317
aF0.028426663157202017
aF0.039427006152049845
aF0.030795097562054705
aF0.029742278446941592
aF0.025247221492955225
aF0.04061530157873422
aF0.03390018648432636
aF0.029105749394564468
aF0.027508480140059025
aF0.036436431958486094
aF0.03267525921340607
aF0.03233454512610917
aF0.024617007714794328
aF0.03847620756960483
aF0.03323824056259529
aF0.034195557963163516
aF0.028704541941751795
aF0.03254682233185251
aF0.031307306511124296
aF0.03698676620291814
aF0.030275614007988103
aF0.033853294949900616
aF0.028725868725868662
aF0.034562887760857225
aF0.03089008721123753
aF0.034657347043932085
aF0.024123336038070955
aF0.03487376014427404
aF0.03523561026738914
aF0.037188596096771206
aF0.02953865117098074
aF0.036022243735506596
aF0.03795198278374311
aF0.0389546017798805
aF0.030769908968678986
aF0.03470408071344916
aF0.03485668291374137
aF0.040427927927927834
aF0.031551735566406613
aF0.035142328686786586
aF0.03427756357395967
aF0.03784148397976383
aF0.037724139459627104
aF0.03371845204711153
aF0.035277369989768145
aF0.03626198441745058
aF0.04091918294849014
aF0.03517114530528008
aF0.03600285701531174
aF0.03511791662009604
aF0.040227846979032665
aF0.031108043110358887
aF0.0382563667611543
aF0.038737992341969056
aF0.04314517919793924
aF0.03095169221868665
aF0.036001609010458485
aF0.036850921273031745
aF0.03983550072246295
aF0.03146012379213601
aF0.0360308199349752
aF0.03949401097055851
aF0.041709439857174645
aF0.026368988115072694
aF0.035547824535581196
aF0.04039929273260359
aF0.04310229253251096
aF0.027862877076857646
aF0.032832102500222365
aF0.03834345516885902
aF0.044027410758274634
aF0.027661245092540598
aF0.03454331251250353
aF0.03903399807515826
aF0.043684328191370345
aF0.031627990323447645
aF0.03428140056395561
aF0.03616102396562904
aF0.04331838565022412
aF0.03439295977011486
aF0.034570750216344474
aF0.03875325374741935
aF0.04702624825536885
aF0.03727001100802004
aF0.03388592549965686
aF0.038211418576490026
aF0.04665573991333427
aF0.03576544315129804
aF0.03223806571605697
aF0.03670528017241371
aF0.04430777518405449
aF0.035033060629832934
aF0.03459476295356952
aF0.038236221891757835
aF0.04422620911816016
aF0.03727912008654878
aF0.03441358712610878
aF0.0401388294156092
aF0.04153290529695015
aF0.04040312943882028
aF0.03577474828477226
aF0.04118418671973936
aF0.04602285458211954
aF0.04372358600845238
aF0.03288510185061902
aF0.03998649864986489
aF0.04180874061197646
aF0.041064484952012675
aF0.03174109917428742
aF0.0398832903153405
aF0.041227873627604654
aF0.0398249843736047
aF0.031275775206758887
aF0.0404871921403256
aF0.04209246837437527
aF0.03870838792777979
aF0.034824759309312586
aF0.04073834052157581
aF0.036342032104743884
aF0.03862412672985351
aF0.038382068903561876
aF0.04007944477918359
aF0.036816277141640624
aF0.0354037405208263
aF0.03807471264367807
aF0.04120042968400313
aF0.033510329748784005
aF0.03512990048754416
aF0.03455520786767985
aF0.04494280825002241
aF0.03122913235097709
aF0.036114265357468804
aF0.033988269140703325
aF0.042752215747996244
aF0.03519159870405533
aF0.036791381958200635
aF0.036204242789265796
aF0.0405743379036219
aF0.03985863827502899
aF0.03545077880929689
aF0.0358859623861949
aF0.04267377522904943
aF0.04264416189111738
aF0.03795328142380414
aF0.03641170328571738
aF0.04419217514696929
aF0.047103240595082814
aF0.03550942975114377
aF0.03175128527614123
aF0.04330584471182001
aF0.04211325473383341
aF0.03560758082497205
aF0.030760429501848197
aF0.039916532040926135
aF0.03877473618454803
aF0.03502119116662941
aF0.033018037835459674
aF0.042942167321729265
aF0.03806731716050479
aF0.03376484719071125
aF0.03749114730878179
aF0.04326869185068929
aF0.03401284432410653
aF0.03585967566124611
aF0.03852451761373686
aF0.04247458689713841
aF0.03823450496377775
aF0.03721874094061495
aF0.045203527211187214
aF0.04157446523167697
aF0.040161001788908676
aF0.03743877619484258
aF0.04555193500870409
aF0.043222443455110754
aF0.04068681504151936
aF0.035112328279117325
aF0.04857636473782214
aF0.04623576194648503
aF0.04543506215173586
aF0.03403507991908047
aF0.051817079196801466
aF0.04738664987405531
aF0.05138187826795525
aF0.03465357581167012
aF0.05211207573412286
aF0.05423973964924956
aF0.054965105140719665
aF0.03416754419375791
aF0.053838909319221334
aF0.054674080101256545
aF0.056232320467195784
aF0.04103526887488257
aF0.04843145585045715
aF0.054147543578033384
aF0.05475530513018572
aF0.04565995525727059
aF0.039128600297572695
aF0.05400460767041592
aF0.04960900420376972
aF0.04975068252070113
aF0.03814306439013494
aF0.053249892686894125
aF0.04817861339600459
aF0.05128379296291253
aF0.03536030002678803
aF0.047272645880430536
aF0.04802616738100598
aF0.04943728997045479
aF0.03396914321284061
aF0.049376334419597594
aF0.047817281728172706
aF0.045886182512066345
aF0.03246205733558171
aF0.0440687794107807
aF0.048046283531831116
aF0.043590773211975097
aF0.032817888530426005
aF0.03693307399876218
aF0.04841814434857429
aF0.039617212072542235
aF0.03137090177525251
aF0.034052238476156724
aF0.05008339719605091
aF0.04001697148344155
aF0.0330569301413222
aF0.03367761299435021
aF0.04873053029620949
aF0.03835018484700005
aF0.03407196675038331
aF0.038285042896096036
aF0.04471935750878046
aF0.037166962699822295
aF0.03598421510266864
aF0.046869776460362285
aF0.043159354175052456
aF0.033496332518337335
aF0.03629634584085783
aF0.04860600387778287
aF0.04331475387818135
aF0.031949306509504956
aF0.04135119394292361
aF0.05271151612615015
aF0.04541177524867809
aF0.03000621890547257
aF0.03890129522108075
aF0.04977557446238349
aF0.04332902420541157
aF0.033646357203257746
aF0.04041892767021719
aF0.051931503174461116
aF0.04419101924447602
aF0.033965967126831476
aF0.043377209645339254
aF0.05150407142376443
aF0.04448963174830165
aF0.039670307578904954
aF0.04433816792187176
aF0.05489965913451758
aF0.04610706140154723
aF0.0394504240417104
aF0.04017986979574478
aF0.05509200793793962
aF0.049099099099098986
aF0.044038305907742006
aF0.03697249960905204
aF0.052458060464698905
aF0.0477656896241682
aF0.04829481461458745
aF0.03558400286462405
aF0.05287480090629685
aF0.04529874319510709
aF0.04640506727162452
aF0.03433149814242864
aF0.05021023438897824
aF0.03982162764771451
aF0.04509834564979562
aF0.04115448691971714
aF0.04558646247265248
aF0.03787119338813509
aF0.04247293828813739
aF0.03755448753772206
aF0.04709358282785315
aF0.03957123715944609
aF0.03938725981341696
aF0.03883083244015711
aF0.045660157649587856
aF0.04037094005662177
aF0.0370823236477623
aF0.04044677231623234
aF0.04625999686372892
aF0.04459910040951497
aF0.035580440795931034
aF0.04407496568947276
aF0.0451299500794698
aF0.045725690706853145
aF0.03636566581091631
aF0.04398741290177558
aF0.04474804031354973
aF0.04546680451296794
aF0.03703289826568917
aF0.04391891891891882
aF0.04719691189012063
aF0.04462042354630284
aF0.03634702382278868
aF0.04145252907763042
aF0.04561372003232458
aF0.046598677574806575
aF0.03424276788295191
aF0.039569796101277074
aF0.04992056566199
aF0.04652049143574557
aF0.03160170265873274
aF0.03695632638389639
aF0.05339358377734301
aF0.04165736980677397
aF0.03407539993287832
aF0.03574384324602403
aF0.05221621864000167
aF0.04102392877017242
aF0.036046746371772645
aF0.03243557623478876
aF0.04661660856351111
aF0.04452786081952832
aF0.035303077819094045
aF0.029258400926998773
aF0.047516778523489824
aF0.04651999011169282
aF0.030603381072231928
aF0.029909958099313474
aF0.039779668169602114
aF0.04571223698657753
aF0.028722431594674688
aF0.03220399588790052
aF0.040626942545066956
aF0.04562967608978082
aF0.029148983694438173
aF0.037905853274912846
aF0.04416607333570656
aF0.047945513396870955
aF0.03153536257833475
aF0.03925874470611952
aF0.04509970111968585
aF0.044917045096893024
aF0.031294642857142785
aF0.039583099854308995
aF0.044869363439612564
aF0.043531919667900716
aF0.03261691807947307
aF0.03715080041253747
aF0.05008623972403277
aF0.04296203718169026
aF0.035266666666666585
aF0.03892322852279844
aF0.05044742729306476
aF0.04006335184813393
aF0.036457173399848476
aF0.036227037631531935
aF0.05543580762494935
aF0.043796929283873035
aF0.03545153475139464
aF0.037866785674439275
aF0.05651530108588339
aF0.042869031285845925
aF0.034775837134275144
aF0.03879319999104074
aF0.0575567033460587
aF0.04467678471051142
aF0.03273202730254403
aF0.03685872315650394
aF0.05768537706099636
aF0.04794721077404669
aF0.030984231041814247
aF0.03910802330793357
aF0.05086181907373949
aF0.050415263748596964
aF0.03446672864922293
aF0.03827312381165409
aF0.05019520356943658
aF0.05037233683547425
aF0.0358490566037735
aF0.03899677823518874
aF0.05210645501221934
aF0.05200982933922481
aF0.0348370204362393
aF0.0423827425707124
aF0.05346837034874569
aF0.05438504978114427
aF0.033343658730861064
aF0.041244735191325294
aF0.052062295229118864
aF0.053362639354663156
aF0.03120990931209902
aF0.03479036574487057
aF0.05567634203743123
aF0.05036667116569926
aF0.03157034287734175
aF0.032023645495355274
aF0.05354668573727248
aF0.05014171953030087
aF0.03282817125436303
aF0.026425560239627187
aF0.05497834526400813
aF0.04623602819051029
aF0.03315296935290719
aF0.027265651061937
aF0.055210040638541374
aF0.04710968991375223
aF0.03320056076014145
aF0.028442447962995845
aF0.05631015561752258
aF0.040278490616562065
aF0.029988901220865637
aF0.027477657729758506
aF0.05875716413195528
aF0.04042187115947525
aF0.02905552834305555
aF0.031141017616024252
aF0.061653285084247285
aF0.044111713811807854
aF0.030251726442414723
aF0.028018827938519134
aF0.06044192634560892
aF0.048391796481004036
aF0.031823854519522125
aF0.032270269067277875
aF0.057315505851051704
aF0.04667264172081549
aF0.032631696179975425
aF0.027533554432746393
aF0.05538918785040403
aF0.049019827992724384
aF0.03269299340345865
aF0.030437596233235824
aF0.05821196403089524
aF0.048125576270042845
aF0.03134607672771013
aF0.03089001722325356
aF0.05479143686828882
aF0.04952145028712972
aF0.0275857499392627
aF0.03527411814704624
aF0.05172529914913667
aF0.047804285746407826
aF0.024530225137386934
aF0.036879020729092125
aF0.04887234901134365
aF0.049904203764228446
aF0.026159571169095765
aF0.039696868382926465
aF0.04906941197626315
aF0.04782471768569747
aF0.02631753985322478
aF0.036428618997935404
aF0.04704425177344883
aF0.04561862647775461
aF0.030908405578590207
aF0.038302208635165286
aF0.048615163621672466
aF0.04418159288047754
aF0.028907899122319676
aF0.036829074188699185
aF0.04925024692466542
aF0.04585792152799665
aF0.03504475219308003
aF0.03658023515865451
aF0.055462602876006024
aF0.04992336819329235
aF0.035322313309142955
aF0.03751001156892401
aF0.05356820642367364
aF0.05408711014473046
aF0.031976939062814166
aF0.037250050157159015
aF0.05519943826587226
aF0.05426832038526179
aF0.02989179037739217
aF0.034328557444157616
aF0.05318836983736708
aF0.057187613512531654
aF0.02900524729262023
aF0.03266957062850024
aF0.049405654675292586
aF0.05778272423739964
aF0.032224834844922105
aF0.031858446373465285
aF0.047621176891432554
aF0.0518139408487702
aF0.030964535196131043
aF0.0320728788013121
aF0.0463513725842292
aF0.051318586872936056
aF0.027927366593973855
aF0.039017534466604116
aF0.046978811276710254
aF0.05013568521031196
aF0.025863414416623876
aF0.039950816007153944
aF0.047980195791605604
aF0.05410074559010717
aF0.02497109312461081
aF0.041132944358750714
aF0.04778371581263743
aF0.05762998128452079
aF0.019032022484342798
aF0.03677026366101988
aF0.050893899919144614
aF0.054099515832064064
aF0.023819603823614553
aF0.031622476283142714
aF0.049279842304504516
aF0.05499269806498709
aF0.026248828177313454
aF0.031230605550137354
aF0.04806381695081883
aF0.05560370387264504
aF0.02617439190243679
aF0.030164776754075057
aF0.0463277340957826
aF0.05267343831663132
aF0.02476464724775717
aF0.027916583383303287
aF0.04787795726706947
aF0.04992199687987508
aF0.025934418200841417
aF0.0298768216899975
aF0.04599973047032917
aF0.048518677544010194
aF0.027034844911218842
aF0.035302705213563594
aF0.053544801409787054
aF0.048180281690140735
aF0.030067012825633448
aF0.04004001778568243
aF0.05602816075095323
aF0.04524093270073967
aF0.029666474219478548
aF0.03475758246623858
aF0.053757134155970006
aF0.04759009009008998
aF0.031582238899312
aF0.03313844456701592
aF0.05032660665783732
aF0.047702742288019
aF0.034871244635193054
aF0.02942402633022484
aF0.05001015091019816
aF0.05276007052760058
aF0.031090518399140406
aF0.029436925574151594
aF0.050006766815536494
aF0.04840199103583403
aF0.027996344426364648
aF0.029424044652470983
aF0.046107110711071
aF0.046667865006965244
aF0.027951559567432237
aF0.026985519964896825
aF0.04196430570795163
aF0.047225581082896574
aF0.027731695287629404
aF0.02509665159557035
aF0.04016710229430547
aF0.044419567894324316
aF0.028812116323878593
aF0.025225343484729094
aF0.043382830522520004
aF0.04580546703173381
aF0.029582483583962642
aF0.02484893598388645
aF0.04301798770914627
aF0.04182798827294487
aF0.025643324666009087
aF0.023584180592459158
aF0.042711380026345655
aF0.03920562311725976
aF0.021131332124549457
aF0.021657085180146526
aF0.04454688554081393
aF0.04044101136210527
aF0.02332244057477948
aF0.023861694202199867
aF0.03915939623657111
aF0.04324965319729708
aF0.02073598130841117
aF0.02346163114197458
aF0.0434714199015486
aF0.05047297297297286
aF0.02299313337359363
aF0.02215411558668997
aF0.04483098717833756
aF0.05143502824858745
aF0.024459753607252596
aF0.018068194276943277
aF0.04210266313378533
aF0.049307704469992886
aF0.024461139432966583
aF0.021857803213735368
aF0.049535533910533794
aF0.0534188034188033
aF0.022987988663457592
aF0.026537517415245744
aF0.05294888005780335
aF0.05004625555630756
aF0.022636514560057382
aF0.030827534240503454
aF0.05882619225458894
aF0.05387740280961338
aF0.025831247765462938
aF0.027867833192698786
aF0.06078600244775835
aF0.0566397818925365
aF0.029160517017755648
aF0.02734348863661702
aF0.062498575433637855
aF0.058022889973097305
aF0.030259173494834275
aF0.027558967759114147
aF0.06462577274904746
aF0.05977740272772873
aF0.032232827413550234
aF0.030215923524299686
aF0.0647112531385527
aF0.05968381247437227
aF0.0333080999242997
aF0.03459119496855338
aF0.0693960777126098
aF0.05876742813025101
aF0.03223363257668568
aF0.03733697232724092
aF0.06322259288031791
aF0.05694875068393202
aF0.031974153297682634
aF0.04209983868076707
aF0.061197916666666526
aF0.055020820533824705
aF0.03360067916266385
aF0.04014851595875542
aF0.05647863247863235
aF0.05200127498747768
aF0.03355118850440925
aF0.037135987176061896
aF0.05464319738692543
aF0.04850982878883946
aF0.03230409095975915
aF0.038194289786646386
aF0.05573273619687395
aF0.050729893916039416
aF0.0324742037789788
aF0.03843324341797258
aF0.05206645056726082
aF0.051893853481514964
aF0.03411078717201158
aF0.03740420602388157
aF0.0544054902137841
aF0.050193750141630106
aF0.034566403881140004
aF0.0373284456167016
aF0.05336128770458529
aF0.048844929205338276
aF0.03390740326548863
aF0.03403894626486129
aF0.052582984281403296
aF0.05021893197309608
aF0.03515327813828589
aF0.030689392922650133
aF0.05483812706009831
aF0.050055166512800765
aF0.029469460543914333
aF0.02921918845485718
aF0.056947299464636524
aF0.0528992878942013
aF0.029576837416481
aF0.0347458385537855
aF0.05786880057868787
aF0.05181018056437698
aF0.027561067769109316
aF0.0339658996706472
aF0.05842406682210186
aF0.05275692349565639
aF0.028011827215935554
aF0.035874237616186085
aF0.058191018342820866
aF0.05485670408094118
aF0.03132030919337945
aF0.037549807523468544
aF0.05770185494426128
aF0.053347541206611074
aF0.03322318478163786
aF0.03824519393679256
aF0.05654815481548142
aF0.05223829902859848
aF0.0328803742481621
aF0.03830295383367497
aF0.0560160820364555
aF0.054066364526634506
aF0.03040299572039936
aF0.034991246577187156
aF0.05370249091032259
aF0.054639970943430365
aF0.029934225244977335
aF0.03670874742591092
aF0.05373080233769752
aF0.05558836892321659
aF0.02472958924108026
aF0.035890895258553095
aF0.0523754815165235
aF0.055207197382769774
aF0.02173719772403978
aF0.03787743433982482
aF0.05091178584261576
aF0.05268882996804665
aF0.01980903202831129
aF0.03903399807515826
aF0.051226292427027635
aF0.055820827648931204
aF0.019896466351564213
aF0.03741382020705599
aF0.05207161815646216
aF0.05681766550047695
aF0.019996854427393396
aF0.041492651872587216
aF0.0518615225318506
aF0.054172601686676036
aF0.020132876988121558
aF0.04196041214750533
aF0.05025125628140692
aF0.057295697700887646
aF0.023568494534353834
aF0.04522159257670502
aF0.049380499191955356
aF0.056056056056055924
aF0.028150948491190108
aF0.04342738850636775
aF0.050237030712889416
aF0.05644886169801438
aF0.03000539422817578
aF0.04262463901139483
aF0.05541533330328558
aF0.055086185417563126
aF0.03117570537836982
aF0.041501222603584714
aF0.0639885352926456
aF0.05472805235838399
aF0.03213275250370496
aF0.04136525497749201
aF0.06426425059187747
aF0.05089604116823895
aF0.03544292381575083
aF0.04250684869986966
aF0.0640021849963582
aF0.050002251339546916
aF0.03202982862020163
aF0.0418345072799693
aF0.06264638333674406
aF0.052734594704042716
aF0.028608640977274703
aF0.04160125588697008
aF0.06088435374149646
aF0.05494455759221531
aF0.02407374261678892
aF0.04363408296747593
aF0.06084907797562398
aF0.0555191799688423
aF0.021274701798112822
aF0.04813013959533028
aF0.05766174801362075
aF0.05527513071821441
aF0.01998135073930993
aF0.046213150916909806
aF0.05946596430679792
aF0.054065694919864765
aF0.023388426070298875
aF0.044714540588759934
aF0.05021553183326175
aF0.05120891062211344
aF0.026111111111111054
aF0.046196564928230634
aF0.05126415561609282
aF0.054702953413818846
aF0.028480519769485728
aF0.045617735493425376
aF0.049878782436921856
aF0.05467456158261291
aF0.032849982098102325
aF0.03841271962054905
aF0.04967743385708173
aF0.05766618366237987
aF0.02974377351729074
aF0.04027445633953906
aF0.05179677819083012
aF0.05658159459276158
aF0.02515344269612761
aF0.04246741029431518
aF0.047860866438971666
aF0.05422705041808457
aF0.02898777812597925
aF0.04268115455988543
aF0.04918253986102042
aF0.05571874011478138
aF0.028921371418354054
aF0.04246327228818666
aF0.04647295444841446
aF0.05257450125392546
aF0.032587744856335935
aF0.042838229024078175
aF0.04914054600606662
aF0.052990757688744144
aF0.03378666966393158
aF0.04446988573865795
aF0.05432109905479471
aF0.051362848589884866
aF0.030230045468869513
aF0.03996320064623246
aF0.05382821168957618
aF0.048344161703663485
aF0.02800937401415109
aF0.03594245632846348
aF0.05375787578757864
aF0.04658558982284027
aF0.02416231309673927
aF0.0372079478506305
aF0.0513241311092126
aF0.04793121253620086
aF0.02350601211463696
aF0.035300964788574675
aF0.050023638533060064
aF0.050465524220752817
aF0.024806969362717455
aF0.037381293674968556
aF0.04970780026625138
aF0.05130979755624678
aF0.028755364806866888
aF0.03664358233039728
aF0.05292485443959231
aF0.05220720720720709
aF0.028639996377549798
aF0.03973792267821473
aF0.05327794424770713
aF0.053545127008225384
aF0.02287057334629026
aF0.04036234632633472
aF0.05299825827320217
aF0.04950203712086906
aF0.019531338611255996
aF0.04014175544956082
aF0.05557314756174781
aF0.054665666962033815
aF0.023843488893417513
aF0.04125942785736591
aF0.06352351668374885
aF0.05436853565596068
aF0.023712201621462876
aF0.03734116652201963
aF0.06397736606735406
aF0.05948542024013708
aF0.023548765098251254
aF0.037585825027685406
aF0.06064122693244121
aF0.05630307583726053
aF0.02349541962505874
aF0.04147670410319128
aF0.06113477438899378
aF0.057949174600999936
aF0.024180475504322712
aF0.042534683499130026
aF0.0582577132486387
aF0.0543085215255508
aF0.02431748327608022
aF0.04094389748398178
aF0.05286961241011249
aF0.054517346428408914
aF0.023625767837454664
aF0.03918638624350416
aF0.052439962009859224
aF0.05115961800818542
aF0.02595202601978582
aF0.035890703573494644
aF0.05359122271236273
aF0.056605930362817365
aF0.027725680714043546
aF0.031849825404239154
aF0.051161111236487436
aF0.057114867635667615
aF0.025588860255888544
aF0.026379690949227312
aF0.05423268447261192
aF0.05998446708392329
aF0.02299835403936772
aF0.0276278534772606
aF0.05586224130489094
aF0.06660391220497734
aF0.021746509470254072
aF0.03290029808248424
aF0.05921127660059745
aF0.07048478431011447
aF0.021136811581069705
aF0.03281887528827383
aF0.06380205355713585
aF0.06909533319560161
aF0.020239336385476585
aF0.03930863314178378
aF0.062387658983868256
aF0.055718939462491957
aF0.022891757606007614
aF0.03868627846060842
aF0.060620492584024896
aF0.0545030140959977
aF0.02303989780322553
aF0.03638109701625863
aF0.060724601423730214
aF0.052754929577464665
aF0.02337435709037467
aF0.03756215562424397
aF0.05576015001920414
aF0.05220883534136534
aF0.020018302447952368
aF0.03747747747747739
aF0.05264936469316019
aF0.048683768343228295
aF0.01841207319028095
aF0.033150158602510756
aF0.049536370183651306
aF0.04687534960732095
aF0.019816555316498653
aF0.03588958436529014
aF0.04991207899364252
aF0.04540775221555804
aF0.023593466424682342
aF0.03581841833759468
aF0.04880684376407013
aF0.04982501794687713
aF0.02472814959734286
aF0.034859661748830435
aF0.05390591379583689
aF0.05007719675102358
aF0.029862591265702166
aF0.036965816799764635
aF0.05436311657666639
aF0.05410039481105459
aF0.031887813082412765
aF0.03675475782447903
aF0.0562208839904555
aF0.05638911417500212
aF0.03334469826116596
aF0.03907621662990132
aF0.05506818181818169
aF0.05673294170808844
aF0.02986607041000244
aF0.03852921272276102
aF0.05200362236812304
aF0.05367645401897367
aF0.03016251846800766
aF0.03680426820997414
aF0.053418318740643164
aF0.05179615705931483
aF0.0249535800009057
aF0.03353274559193947
aF0.05068936632632259
aF0.05066293226119745
aF0.025223629841529253
aF0.032476746019233727
aF0.054014961466313974
aF0.05186502487450183
aF0.029520043632396985
aF0.033122424624529884
aF0.055370684776457145
aF0.05457170573239774
aF0.03253304314312264
aF0.032883964020546795
aF0.057439540302694256
aF0.0560268208716782
aF0.03409168235534277
aF0.033024127012442506
aF0.05415913200723315
aF0.05613591751088636
aF0.0320921340131099
aF0.03628356173570893
aF0.05331186648223303
aF0.052736877599190615
aF0.031384838988054616
aF0.03729917986743054
aF0.04754365330679443
aF0.05302671626648618
aF0.027934479711819414
aF0.03784596736178132
aF0.04392548718180575
aF0.05282976324689954
aF0.021660894954844793
aF0.03995170918196239
aF0.04168268687097129
aF0.054811753077545024
aF0.02181694608065242
aF0.03652691928692995
aF0.041389153187440436
aF0.05338503505647349
aF0.021175986842105213
aF0.03744991381818987
aF0.044280860702151655
aF0.04959791544993025
aF0.019600183823529366
aF0.03340921264059982
aF0.038863200631555114
aF0.04989173583543836
aF0.020767247084597956
aF0.03023131195856026
aF0.04411930983017109
aF0.052482397138550706
aF0.02144778228563609
aF0.029676178549065145
aF0.046446419284082836
aF0.059052710263437926
aF0.021029204705454826
aF0.029831009906315768
aF0.047384030246088955
aF0.05561964217050042
aF0.02140977955184609
aF0.02863480540431532
aF0.048808044288780814
aF0.05339030698302023
aF0.020956182527442573
aF0.029232833817937755
aF0.04653158952813343
aF0.05301427220746465
aF0.02198929019026997
aF0.032246442082507584
aF0.043523292729606096
aF0.0567553539593346
aF0.02025081281932183
aF0.031531128317593804
aF0.04468844607112185
aF0.05890603085553984
aF0.01668039538714988
aF0.028177203300758038
aF0.045664987917522874
aF0.05973305441233302
aF0.01729020375273393
aF0.02510721944245884
aF0.04715469176768008
aF0.05900818926296619
aF0.01769571506056767
aF0.024928711459632807
aF0.043954310946898764
aF0.06598636342836209
aF0.01852515568298907
aF0.024342354804881804
aF0.044946368233666587
aF0.06471892645680437
aF0.019345004595279148
aF0.021394541163898613
aF0.04141584939691119
aF0.059113524320148894
aF0.01911116137057555
aF0.025025811374960665
aF0.038843457943925144
aF0.05667896342851925
aF0.02093059972483474
aF0.02820311624257364
aF0.03980021148783936
aF0.05690279390668748
aF0.019860548807917183
aF0.029823575682660905
aF0.03615075825156103
aF0.05544311281922985
aF0.021371567699174848
aF0.029012193205038894
aF0.03524771999014042
aF0.054684303831992236
aF0.023194198082493154
aF0.030159695474919406
aF0.037110119514765484
aF0.055968368668620774
aF0.02633826239381539
aF0.029726088908845913
aF0.03927832268514343
aF0.05370989380812685
aF0.026637917480852532
aF0.03119820828667406
aF0.04319176783860621
aF0.054021554169029935
aF0.028886141395976107
aF0.0325441799001052
aF0.04212719695597019
aF0.05793141139499918
aF0.025894401149864067
aF0.030538962346466136
aF0.04031529496792836
aF0.053246020097098216
aF0.021126760563380233
aF0.02712279919768213
aF0.04114522373278103
aF0.053481126964059836
aF0.023240178391340346
aF0.026745615015082054
aF0.042945061881467024
aF0.0541688314621969
aF0.02547472586253003
aF0.02676235830706279
aF0.04316189098797785
aF0.056426261392676896
aF0.029655541196916293
aF0.027531581663562663
aF0.04374135938172825
aF0.06161385912924536
aF0.033623240383753174
aF0.03017492059231416
aF0.045498788962582234
aF0.05806539447709365
aF0.03662377395842698
aF0.031226216591305835
aF0.04297554255775605
aF0.05873405076510907
aF0.034853030747366204
aF0.03181146108696619
aF0.04297370806890289
aF0.058819530984479305
aF0.030383807350848193
aF0.034561489904642445
aF0.04081402177350128
aF0.06275160916141637
aF0.0259304105457951
aF0.03374336223701007
aF0.044887780548628325
aF0.056584968060526306
aF0.024664637583136004
aF0.030992151338297375
aF0.04592068245757318
aF0.04972824248438228
aF0.028677067364054402
aF0.03386745173831936
aF0.04833974373563338
aF0.05575187377613708
aF0.02836687219097945
aF0.03315375982042641
aF0.05155275245081225
aF0.056476601904417126
aF0.02645944238924473
aF0.030100710367772614
aF0.054324386327139124
aF0.054112799148685546
aF0.02734595338552824
aF0.028529001484947962
aF0.05352698042976855
aF0.05713510825837351
aF0.024887285843101837
aF0.029940656141529437
aF0.050525547778107
aF0.05639781685870211
aF0.025386438000676914
aF0.023941192338818397
aF0.04818619874534037
aF0.060369767652110884
aF0.02512005073842524
aF0.02104578972140659
aF0.04381495822294671
aF0.05262685629682791
aF0.022777954762663217
aF0.020752939064883735
aF0.042958018300297336
aF0.054222984407789214
aF0.021754465809534596
aF0.018947180266332964
aF0.04329710144927526
aF0.0545131788868165
aF0.02127175520418605
aF0.018888615357070877
aF0.045619655709225354
aF0.05841746677759526
aF0.02014570498254815
aF0.020892050284078152
aF0.04672240726893697
aF0.05995284607611977
aF0.019385881313776946
aF0.02216085140778656
aF0.04546688382193258
aF0.06080318019605172
aF0.019385583418154852
aF0.02358045227712084
aF0.04412991052311288
aF0.062231662674560345
aF0.020055098991408244
aF0.022336461186189507
aF0.04485947498134613
aF0.06340600258614808
aF0.01921600558334298
aF0.023318446035415257
aF0.041688238604389326
aF0.06412085796471187
aF0.020079285027327483
aF0.02766143301901577
aF0.039155202305631145
aF0.06340899823297524
aF0.02080943798132061
aF0.03009191630896458
aF0.037372005954260365
aF0.06293436293436279
aF0.024170695115852583
aF0.03204868154158207
aF0.0387335044813763
aF0.06187556766575826
aF0.02442481220768171
aF0.029974833722811366
aF0.03726792248272115
aF0.06447053459477929
aF0.021360928488358244
aF0.03181716334304272
aF0.0369754321292903
aF0.06352566291111855
aF0.0194885152735022
aF0.027915605024361835
aF0.03966286564204255
aF0.06123376033433255
aF0.016967500529498934
aF0.027566794745777796
aF0.04418305375567235
aF0.059650637166935326
aF0.017686245074122683
aF0.029928199163441898
aF0.045769795549531124
aF0.05871263741255551
aF0.019089848308051296
aF0.03058892076012901
aF0.04695463090896725
aF0.05915060009493014
aF0.017837761313765233
aF0.03547851080073643
aF0.04848416032701249
aF0.05973631750634274
aF0.016118374474913825
aF0.03796323512786298
aF0.04365777717612011
aF0.05884749445475519
aF0.015965964769712432
aF0.038743218806509855
aF0.04595804322271443
aF0.055229221524542446
aF0.017640075973409265
aF0.03534158270786838
aF0.04728308798588959
aF0.05584418505274035
aF0.016962843295638085
aF0.03160530590146176
aF0.04980964467005065
aF0.05316147091356452
aF0.01712921795291801
aF0.027453455348690377
aF0.04983795299503649
aF0.05449677114506209
aF0.021804952470367275
aF0.021097615834457892
aF0.04667555294489744
aF0.05486362919754047
aF0.02171072947100876
aF0.0214921225431971
aF0.0433540316774657
aF0.051990032998855025
aF0.018892075757934862
aF0.02281308999370668
aF0.043681677088487914
aF0.0563507269243772
aF0.017367349383159616
aF0.023288194210514444
aF0.04365651468733095
aF0.05820905624619259
aF0.014249363867684443
aF0.018287333828193492
aF0.04370423935641317
aF0.06066549438658176
aF0.013786018062789665
aF0.01584491259524873
aF0.04305226323512802
aF0.061597646526363285
aF0.01613407391377524
aF0.01715980349987545
aF0.044344342078457014
aF0.06000680349245932
aF0.015846837802954213
aF0.019949676491732522
aF0.04101074251739738
aF0.05898521989906259
aF0.015333447457875777
aF0.02055986082555744
aF0.04058716092809299
aF0.05745470912568908
aF0.013945172824791385
aF0.02644486133399628
aF0.04194665037670526
aF0.05739504356682119
aF0.014088542910358626
aF0.024706229970225185
aF0.03974109446430987
aF0.05824868492653714
aF0.01617133918902655
aF0.022638351765158146
aF0.03730516028323861
aF0.05530828494611496
aF0.017952589822870933
aF0.02029350293278194
aF0.0367432055670149
aF0.055467619392185114
aF0.01861548808608758
aF0.023550765231810284
aF0.04116723906566279
aF0.060800689936906946
aF0.019473442003536175
aF0.02420588499955002
aF0.04443281612594975
aF0.061048425545439954
aF0.01762770479598449
aF0.024992126692760998
aF0.043042839380580886
aF0.06015669353923002
aF0.017512500301939616
aF0.029166288669146265
aF0.04434735364694154
aF0.06092118081515199
aF0.017144503673822174
aF0.02999999999999993
aF0.0433728936401521
aF0.06544776458816558
aF0.01624062340688948
aF0.03400793293067692
aF0.0403408575831746
aF0.06543669908206838
aF0.01326528155620287
aF0.030760550665763865
aF0.03920460964862718
aF0.06473482529533123
aF0.011460490200799317
aF0.026768167340576864
aF0.03487109905020345
aF0.06013443406866048
aF0.012785519321936473
aF0.027860967419911
aF0.036212974408277164
aF0.058012352610892624
aF0.014153654564613434
aF0.02214781802140121
aF0.039142420997470916
aF0.05686808855656391
aF0.01627677734234122
aF0.02507794187925261
aF0.04468211799193834
aF0.056033512003963656
aF0.018081128413877934
aF0.028781397888605686
aF0.042288273057503725
aF0.055262508136742036
aF0.01632093100267281
aF0.026746922519913046
aF0.039784848622395626
aF0.06036828023472792
aF0.01815876357720461
aF0.026683031046865705
aF0.03911599213612627
aF0.060658539876748546
aF0.019644172070595455
aF0.03005644082779874
aF0.037410724407663444
aF0.06467244854056732
aF0.017835485481914774
aF0.02853475068690593
aF0.03739903617728899
aF0.06673627820402218
aF0.018661626432519035
aF0.028976641971952176
aF0.04047229047229038
aF0.06517011733792401
aF0.01876413858792709
aF0.03190889615514707
aF0.041563955080799686
aF0.0647137270857348
aF0.01809417692084096
aF0.03156258448229244
aF0.036909247741408184
aF0.06288059903468793
aF0.01706049612707124
aF0.03261309015767478
aF0.033815771675909566
aF0.061373467916366116
aF0.01576318674625407
aF0.03216965449072195
aF0.03867340949112738
aF0.06251269436483026
aF0.017452176660752005
aF0.03162161556894266
aF0.04214620388481999
aF0.06071943743238356
aF0.019482429054550752
aF0.02873537353735367
aF0.04482344680754673
aF0.0605937921727394
aF0.018348623853210965
aF0.030340349305866477
aF0.0456847028904883
aF0.060177070693451844
aF0.016342184332022336
aF0.03127029993504014
aF0.04461639403606406
aF0.06149268534589621
aF0.01623232671560171
aF0.03031455546109439
aF0.045106305816220035
aF0.06335311237957705
aF0.017148238092877986
aF0.025117528542646015
aF0.04422053662402345
aF0.06329285054415164
aF0.015628110690822178
aF0.02316541589897986
aF0.04472409578561395
aF0.06100849400026951
aF0.01343861886311243
aF0.022069929439347095
aF0.044658967881631075
aF0.06458375600189341
aF0.013072530676709966
aF0.023570159458426054
aF0.04182133135362524
aF0.06454878844466429
aF0.013372992841942316
aF0.019090725761276257
aF0.04060251798561142
aF0.06279190451478968
aF0.015132874015747994
aF0.021272772199384456
aF0.043223244901642206
aF0.06572249496617709
aF0.014003651037663302
aF0.02181867157511948
aF0.04430394089786288
aF0.06759938422530094
aF0.013177998472116087
aF0.02194420735815996
aF0.03799850363887809
aF0.06433686493324584
aF0.013820240894476669
aF0.0214151028104516
aF0.038310722495154735
aF0.06599317467850913
aF0.014252828525248533
aF0.020846339070721438
aF0.036265935202464114
aF0.06364804255223226
aF0.013862995363067034
aF0.022843999821356743
aF0.03332357643032438
aF0.06178773723286606
aF0.016914082236604632
aF0.024341811691209227
aF0.0366904203499909
aF0.06086524790684015
aF0.019567037435713384
aF0.02709972429560884
aF0.03613208610391066
aF0.055792929747233835
aF0.020757992188630066
aF0.027560387018200617
aF0.03461166032382274
aF0.05264572183532245
aF0.018291519603166988
aF0.02447276418179762
aF0.030230672193187893
aF0.05334763085584064
aF0.01576910211688246
aF0.022399460795326842
aF0.028524783456532518
aF0.0489228106764881
aF0.017440608627000604
aF0.020979336142596342
aF0.0267466253192265
aF0.05081916125011118
aF0.021413785719384182
aF0.022129078781323187
aF0.030837307410124654
aF0.05404618451407697
aF0.024525802942150263
aF0.026282909415439475
aF0.030780488920396004
aF0.05327255256865756
aF0.023275517168341475
aF0.020880587058038646
aF0.03336669244416132
aF0.053625647437042206
aF0.022302448756620616
aF0.022431954912441522
aF0.03461837471989748
aF0.05884466804420074
aF0.02291387300915138
aF0.021531314214240996
aF0.034037799512117196
aF0.05963023847591582
aF0.02187228649879134
aF0.024864042253205862
aF0.03273091455364858
aF0.061222194732462015
aF0.022393694841663075
aF0.024605395723720978
aF0.03346470146023638
aF0.06317338162064268
aF0.021823887409661416
aF0.022968315730961593
aF0.036204034293771094
aF0.059544185208539636
aF0.021222230108595308
aF0.021215558075922295
aF0.03654522755646343
aF0.059044745197829034
aF0.020097298318533866
aF0.021844442450883596
aF0.03952694299346485
aF0.055697794547006116
aF0.019159089290377674
aF0.027287786532951226
aF0.04127775260534653
aF0.0569025235032161
aF0.019855724591100587
aF0.03185328185328178
aF0.040592330544027846
aF0.05854769258516117
asg24
(lp48
F0.0074909941074027065
aF0.01327455183164455
aF0.008346749226006171
aF0.0010191263953736377
aF0.008033539441633857
aF0.01657207174844932
aF0.008481764206955025
aF0.0015251652262328382
aF0.007353590672202086
aF0.015557988867597372
aF0.006627832308962465
aF0.0017870537881127788
aF0.006951647430097308
aF0.015890562387729686
aF0.00720384818983174
aF0.002258385918299563
aF0.007421562527775292
aF0.016189462972385365
aF0.007415107415107398
aF0.0029074283685109905
aF0.00803535556448371
aF0.014814471887224798
aF0.007108291463104014
aF0.002887413099971119
aF0.008198006495688187
aF0.011694278156758987
aF0.006485084306095964
aF0.0022702991452991403
aF0.009016283138204797
aF0.009570489442263444
aF0.0067000510038484565
aF0.0020756611985269452
aF0.00953342305966799
aF0.009448012659406103
aF0.006978577390336625
aF0.002907171769125829
aF0.00915234514858573
aF0.008565560379031861
aF0.006464618378979548
aF0.004137869332796519
aF0.008554644747716136
aF0.007997185741088162
aF0.00591620253749623
aF0.005406733841238622
aF0.009344749726140687
aF0.007696302941593069
aF0.005954716458559314
aF0.006044325050369362
aF0.009317117964568054
aF0.007858732187662719
aF0.007290991574854163
aF0.005855956921696195
aF0.010035100351003487
aF0.007715245893879851
aF0.008391673234735017
aF0.005580683633745121
aF0.010364449261617644
aF0.007875311486200555
aF0.009357295439769644
aF0.0042356652022079435
aF0.011147615271326586
aF0.007959411655185235
aF0.010705743015721858
aF0.003936742177130893
aF0.011639008865651257
aF0.0076171513243193005
aF0.011132803421187163
aF0.0038935025769135465
aF0.012893232192077239
aF0.008026940997370465
aF0.011514841351074692
aF0.004115318880993064
aF0.013354335022599613
aF0.007281999448681413
aF0.012174721189591049
aF0.004599403199389727
aF0.0151210598446779
aF0.0061397302170588496
aF0.01316554627712774
aF0.004540168187511172
aF0.015671692862194
aF0.0057954545454545325
aF0.012411965692768954
aF0.003524032563845202
aF0.014656834940442395
aF0.006448839208942375
aF0.012277044243687717
aF0.002844344904815223
aF0.014097574221578533
aF0.0071204849140359015
aF0.01176198729058345
aF0.0028606180737003268
aF0.0140222733216105
aF0.007125729538976593
aF0.012035692052292978
aF0.0033116312599968385
aF0.013581771242563668
aF0.005713382412718473
aF0.01175252989880402
aF0.0031982702313115086
aF0.012013960356168033
aF0.0061905515013216915
aF0.011011148501705443
aF0.0033076074972436527
aF0.00894274408102124
aF0.004804669959586877
aF0.009848952263430886
aF0.0027908638281720893
aF0.007273948075201416
aF0.003964432100701046
aF0.00896196296634131
aF0.002396538333518246
aF0.006671474936891438
aF0.00360356327498992
aF0.007876352677959893
aF0.0021517302573203145
aF0.0073586016392700095
aF0.004820303567024628
aF0.007631843524357902
aF0.002755065766086023
aF0.007614328575325012
aF0.005326472115015674
aF0.006945396390221597
aF0.0031599092082424604
aF0.00877812991632274
aF0.005886081680702694
aF0.007702152946016346
aF0.004146325152143374
aF0.009285877253023022
aF0.005949542430229111
aF0.008571232657539236
aF0.0049312745448054154
aF0.008787346221441105
aF0.006592856980471488
aF0.008249920014625878
aF0.005182041545677898
aF0.00797805463481539
aF0.00812364228819694
aF0.008294299097452282
aF0.005627298000179343
aF0.007001299915619496
aF0.00947085282882392
aF0.007966121094197075
aF0.006793692214248742
aF0.006563653767263761
aF0.010091660270013974
aF0.007657915854637148
aF0.007841369986480379
aF0.006524506683640978
aF0.011496844003606826
aF0.007632363052945203
aF0.007150268417016269
aF0.005512954308271687
aF0.01146514099635917
aF0.007843856792275387
aF0.007753164556962008
aF0.0056650804441422935
aF0.00993136675605652
aF0.009633911368015391
aF0.008137984040509057
aF0.008312570781426934
aF0.009089049967052173
aF0.010698004719034176
aF0.009660852055476347
aF0.011102551320976999
aF0.009742329053992511
aF0.01252805643351195
aF0.01120289691071628
aF0.012458019424525704
aF0.008823194997157455
aF0.014202459618208483
aF0.011658382286488902
aF0.013645268577156103
aF0.008909037598394098
aF0.013347705433112369
aF0.01197186274067725
aF0.013845802919707996
aF0.007919592578466767
aF0.012295081967213087
aF0.010990739908298096
aF0.014012420099633735
aF0.006677535341804929
aF0.010425497788877917
aF0.009472077572275073
aF0.013633884748227564
aF0.005653112550354976
aF0.009420123768049486
aF0.008444205527930815
aF0.012811484905617489
aF0.005473562912733224
aF0.009801451897313738
aF0.007517787622499647
aF0.01302361524649405
aF0.0057151717874310394
aF0.011414585048952302
aF0.0061224945813688324
aF0.012313424358770447
aF0.0054831620307678524
aF0.011120479456737208
aF0.004954914739755368
aF0.010741408013865741
aF0.005846913141104008
aF0.01006155034182014
aF0.0038977237293420556
aF0.010297247202581152
aF0.007021286050748773
aF0.010643850849919409
aF0.003915984336062647
aF0.010528479422646484
aF0.009340182800720508
aF0.01056425834825778
aF0.003935257236871351
aF0.010035891456918798
aF0.011633856078300496
aF0.00899008380203743
aF0.0047229428590434275
aF0.01131092475378742
aF0.011519206060874547
aF0.008345362684951263
aF0.005010753164977928
aF0.009775995260123488
aF0.013128473067811966
aF0.008188770330934583
aF0.00538265588658765
aF0.009301692454285563
aF0.01180859047366792
aF0.008553953099961611
aF0.0064309392265193225
aF0.008834200978072231
aF0.011380177319041923
aF0.00810609984012968
aF0.007278662490625949
aF0.008753274082697153
aF0.010361440482213937
aF0.008199483320229118
aF0.007677543186180405
aF0.00930139186295501
aF0.010679590359860505
aF0.007613529173965756
aF0.008576860161810848
aF0.009548398584433196
aF0.011457167314150234
aF0.006459017869199247
aF0.008720093840603748
aF0.010685145858947108
aF0.011758747495210596
aF0.005605279811951891
aF0.007701725097384512
aF0.0126126936307021
aF0.011298441518475345
aF0.0062827462632402496
aF0.007351791021429672
aF0.013496710600682717
aF0.010208776042237145
aF0.006196940118944917
aF0.00568105569223886
aF0.011923652355261341
aF0.007189056900620559
aF0.006753530254451175
aF0.005340543439399345
aF0.00949166364624862
aF0.006222475405885046
aF0.007691082440212056
aF0.0054953646822294075
aF0.008037129273262377
aF0.005054295047232265
aF0.008144362823379093
aF0.00571199071801507
aF0.007623773542348015
aF0.004083454200602467
aF0.007609067091923892
aF0.005372748350276428
aF0.007741615131133463
aF0.004575060287124463
aF0.007001432111113621
aF0.004954472415640053
aF0.00865215627957278
aF0.005883417813178842
aF0.006026014189557926
aF0.004827894501564584
aF0.009488393058372752
aF0.007341646335953719
aF0.005092297899427105
aF0.005945064032362591
aF0.01037835886560023
aF0.008430638835038978
aF0.004800910125142196
aF0.006092933982055961
aF0.01046341188409063
aF0.008292989062219813
aF0.005666947358838377
aF0.00636333296250972
aF0.01226105644157898
aF0.007519298792017958
aF0.008748148991912499
aF0.006139864789981146
aF0.014679441953617482
aF0.007009138497027755
aF0.009523375558188258
aF0.006172291296625208
aF0.015437940391763355
aF0.006247784473590911
aF0.010786946429384164
aF0.006173387813110663
aF0.01476402696834644
aF0.006428872287126723
aF0.010767099016423209
aF0.005156816110604803
aF0.014574067738624666
aF0.006240456748323693
aF0.010171027296409537
aF0.004024994996553172
aF0.013958898797983682
aF0.006006006006005992
aF0.00914855072463766
aF0.0031141560637067286
aF0.013481146923971775
aF0.005119830515955322
aF0.00806195932786809
aF0.003433514670471766
aF0.012338626756540585
aF0.004715101607119129
aF0.0069461784668467365
aF0.00314290172302342
aF0.013271400132713971
aF0.0038332107597334494
aF0.00689702267140124
aF0.0028704301194899915
aF0.015022050716648257
aF0.0038031319910514453
aF0.006462182579412018
aF0.002848305480762805
aF0.017882755748854815
aF0.004325317675533931
aF0.006372760998702673
aF0.0032541345339455194
aF0.020129086181277813
aF0.006186587478346929
aF0.00642032648043165
aF0.003233503556853905
aF0.021102457678496427
aF0.008704892828072694
aF0.007282772476142625
aF0.0036622674795113914
aF0.02132375242050248
aF0.009510838724321848
aF0.007576104371709756
aF0.003984420468281318
aF0.02087750774751259
aF0.00997817983453039
aF0.007659222117441388
aF0.004570609190509254
aF0.02020789247261814
aF0.010615517791243312
aF0.007670160082920632
aF0.005909609831441797
aF0.01919105191098318
aF0.011182981824807517
aF0.006953687979070072
aF0.006893001812769942
aF0.018256282104678563
aF0.011967873313462692
aF0.006398789046374005
aF0.007188000712123894
aF0.016646712101676144
aF0.01205449541701728
aF0.00573171011302931
aF0.0077380160525031974
aF0.014615930906508407
aF0.011837411673823616
aF0.00612305513034338
aF0.007437998179355653
aF0.012977221321026267
aF0.011769765283719218
aF0.0061481498411537355
aF0.007088731361525284
aF0.011199635784202114
aF0.011972117865387199
aF0.006448219879724678
aF0.00694011922768928
aF0.00884412513641322
aF0.010942799005200066
aF0.006309148264984212
aF0.007361444711324598
aF0.006731403361153419
aF0.009600397569405205
aF0.005571285048862897
aF0.007936507936507919
aF0.00654664484451717
aF0.008402036311213208
aF0.005886799367798965
aF0.007952773446201808
aF0.006959132155284148
aF0.008752833449289654
aF0.005453212354504616
aF0.007933324419485653
aF0.007864379121999845
aF0.009284384741315491
aF0.0062168796311165
aF0.007190080804932869
aF0.007910962009248327
aF0.00940986691759643
aF0.006815167177423027
aF0.006902540580258718
aF0.007921735972398748
aF0.008852730899392616
aF0.0065712916695187746
aF0.006749659164562039
aF0.008795454545454525
aF0.00969127335686819
aF0.006244160342745137
aF0.0068956253078404
aF0.010196167883211656
aF0.010590594650623017
aF0.005968109339407731
aF0.007800031469867584
aF0.012153333028738493
aF0.009665310526197466
aF0.005149823402073589
aF0.008836590699037422
aF0.012772265936822869
aF0.00934516606158395
aF0.005328354130612976
aF0.009110021023125418
aF0.013963553530751675
aF0.009614953606167893
aF0.0051806407634628375
aF0.009141512422500771
aF0.014227135769465996
aF0.009550991055777766
aF0.005845038513819651
aF0.008332198156472759
aF0.01341857365531883
aF0.009105866973200781
aF0.00732459521973784
aF0.008015528659511285
aF0.011765499865022918
aF0.011108340323275347
aF0.007972639351317052
aF0.008172823067563515
aF0.010926258992805731
aF0.01240486197887081
aF0.00792159880497022
aF0.007758362686189175
aF0.009356488960689262
aF0.012684365781710885
aF0.007204155374887065
aF0.008087557603686617
aF0.008887595424119616
aF0.012447757822207133
aF0.008210402851084927
aF0.007496148451332504
aF0.009267135246452054
aF0.012534379367870479
aF0.008658399098083407
aF0.007143347757400904
aF0.01007821229050277
aF0.011862422905505758
aF0.008460046022650344
aF0.007638650657518564
aF0.011000780988508287
aF0.011316849281166308
aF0.00845771144278605
aF0.007352605379732366
aF0.011385961778889061
aF0.010814934482139627
aF0.00849343688967614
aF0.007213294375456521
aF0.01055450184090146
aF0.009856070087609489
aF0.009018446823047121
aF0.0075612644620570105
aF0.010771113831089326
aF0.008817751584962922
aF0.0088310269482884
aF0.007604996916893124
aF0.010514382252256234
aF0.008232748042212338
aF0.008893437962015218
aF0.007032252153197712
aF0.01064820976973244
aF0.008520699500356868
aF0.008321207711895215
aF0.005914708522243433
aF0.010486558542546077
aF0.008780553197193779
aF0.007833965348895279
aF0.0053950614437553186
aF0.01025185842671694
aF0.009984587549420335
aF0.007851145904243231
aF0.0059149722735674535
aF0.009059419131361556
aF0.013108446671438767
aF0.008714399183025056
aF0.00695535631758941
aF0.008653398122878233
aF0.01520266493773611
aF0.010188069952015986
aF0.007534310089020754
aF0.008634658498146526
aF0.014149890639646443
aF0.012067982205999743
aF0.009155764180977367
aF0.0098235765838011
aF0.014819932251738244
aF0.01503845188379997
aF0.010556109783541724
aF0.010958353791902846
aF0.014348514939861168
aF0.017184718608790867
aF0.009743197160553947
aF0.013740185581727307
aF0.013038042507590612
aF0.01905653057032654
aF0.008889300430575469
aF0.01593421287216969
aF0.01125452190612297
aF0.018350712626929513
aF0.007853826430435869
aF0.018414767527510506
aF0.010348998700775032
aF0.01801535062746255
aF0.006977065487703769
aF0.0198835107451295
aF0.009638554216867448
aF0.01679257304086644
aF0.006653512595787623
aF0.01973654833668225
aF0.009186322085543371
aF0.015663418632182825
aF0.007085998251506909
aF0.019439794665773866
aF0.009578153658039512
aF0.012385101384485522
aF0.007342076099002569
aF0.018312812276944996
aF0.009418723694687728
aF0.00889842110066622
aF0.009173886855395429
aF0.016993755575379087
aF0.008869735732038194
aF0.007811610376004901
aF0.010752688172042986
aF0.0150444851790584
aF0.00771478133844607
aF0.007548370961507838
aF0.011752955659303621
aF0.013250212271528772
aF0.0107077625570776
aF0.008461695515074502
aF0.012169299858063587
aF0.013404465166322932
aF0.012379296142052966
aF0.009527034654024134
aF0.01141966694576237
aF0.012863396565271044
aF0.013941263855559332
aF0.010314386091343098
aF0.01102574220654114
aF0.01321012851279518
aF0.01484594477308541
aF0.010396741454193554
aF0.01133381331723062
aF0.012301061752227855
aF0.01485836694697018
aF0.010061360765204813
aF0.01110570123577007
aF0.012143195079640408
aF0.016188239585945834
aF0.009396368247067858
aF0.011612813499605926
aF0.013119566444620045
aF0.016685714285714248
aF0.008354086484038922
aF0.012234399981463001
aF0.014546523991584247
aF0.015940830576993716
aF0.00886396526772791
aF0.012096493870646277
aF0.016704339963833595
aF0.014156835530881299
aF0.009982158585333882
aF0.01240694789081883
aF0.019713342677578287
aF0.013515721655500797
aF0.010910484434525797
aF0.01229764468839016
aF0.021187013103976176
aF0.013080919174427824
aF0.011595245050672992
aF0.011237773718408187
aF0.01892539586552886
aF0.012924598730869697
aF0.011734028683181198
aF0.010663644144248315
aF0.017552086822536304
aF0.014500849568233096
aF0.01106919933539896
aF0.00969932104752665
aF0.01756226010889936
aF0.015703036075170117
aF0.010548096169849063
aF0.008561209184262123
aF0.015443326117520998
aF0.018059424326833756
aF0.010150223304912685
aF0.008594201224442627
aF0.01278532699645221
aF0.019763395963813452
aF0.010007018497135978
aF0.009581337221412183
aF0.01208236555297478
aF0.01914119528190388
aF0.009055832955061259
aF0.00976096079386054
aF0.012126907414865502
aF0.017734830838772128
aF0.009104325122034263
aF0.010401738246035757
aF0.012819652325659412
aF0.016010335201974726
aF0.00799259443227742
aF0.009892334590963444
aF0.012641204948897228
aF0.015062318907234477
aF0.008354293927416438
aF0.009210466022086767
aF0.013983651962440015
aF0.014825762649239047
aF0.009443039674192733
aF0.008057501258984552
aF0.015558922635066339
aF0.014677669139911668
aF0.009600142885847582
aF0.007943957326984254
aF0.016928740229049225
aF0.0142449481474607
aF0.008985707596601911
aF0.008098462664714475
aF0.01818761239216039
aF0.014026191528459412
aF0.007929613542710752
aF0.007514846962083125
aF0.017576655648010902
aF0.012895309533731506
aF0.005693823535953369
aF0.005769274622032687
aF0.01727679386525466
aF0.011522595810384137
aF0.0034213858834507044
aF0.005178510322801403
aF0.014069460860078157
aF0.011294268273165799
aF0.002570978966732413
aF0.005924980629871004
aF0.010943104935748965
aF0.014035327947418836
aF0.0021727562965590586
aF0.007556101779780582
aF0.010401019618553392
aF0.01564813338496227
aF0.0035535024208235163
aF0.007849650747423248
aF0.011290212881724791
aF0.015967339532773836
aF0.0046777894103757715
aF0.007471356005557942
aF0.010973658712454063
aF0.014464584369208482
aF0.005517580306482586
aF0.007062534284146994
aF0.011279962400125307
aF0.013240999729315138
aF0.005972544125512556
aF0.007693012180602601
aF0.012134078212290475
aF0.01217226349901761
aF0.006227261567305746
aF0.008913597831330815
aF0.013324077391615877
aF0.012856723230223438
aF0.007334361932872683
aF0.00910327026341866
aF0.01331808703840718
aF0.014262391728266259
aF0.008431175220843098
aF0.010997152316347531
aF0.01395484931013524
aF0.017182599209054916
aF0.008975017302583087
aF0.01213964068520493
aF0.013194397455849487
aF0.019197008732131007
aF0.007948202723822264
aF0.014126394052044576
aF0.013668350775893148
aF0.021721179870636216
aF0.007947670394927761
aF0.015586165245871138
aF0.014419075469575942
aF0.02150587258001241
aF0.008266124528048953
aF0.014742356459052839
aF0.013485523886712564
aF0.02001479153184797
aF0.008095631035482486
aF0.014238747916280759
aF0.012416492340913663
aF0.019318181818181773
aF0.008453837597330347
aF0.014230271668822734
aF0.011052584188726788
aF0.0170914333550367
aF0.00949353017030546
aF0.01409817879264118
aF0.010246593852043665
aF0.01552643217951997
aF0.01097728989822672
aF0.01276929826586923
aF0.010790311293708638
aF0.01648043386787597
aF0.01216934748270259
aF0.011995285090253514
aF0.011439014484905889
aF0.015410597424530256
aF0.014717723897289042
aF0.01045763731433064
aF0.012121760369080437
aF0.015363325045738107
aF0.017235955056179735
aF0.00909680107402433
aF0.011311088947320674
aF0.01633130556855401
aF0.018592806274226947
aF0.009337565745267477
aF0.012459998638251486
aF0.016529505283830504
aF0.019284989286117018
aF0.010267225994854775
aF0.012773888535321362
aF0.015432026708379017
aF0.01892245856478341
aF0.0122825684678016
aF0.01407489938379678
aF0.013180876085792102
aF0.019072398190045206
aF0.012741205798171885
aF0.015543453596550906
aF0.011469484220770166
aF0.019228152918234955
aF0.012512097331674242
aF0.015571599936627174
aF0.011324766571137996
aF0.018966808085849718
aF0.013653136531365281
aF0.014870140126813603
aF0.011182329613575553
aF0.017655335179049568
aF0.013879282519481685
aF0.014481003535797097
aF0.012192036070023666
aF0.015595559692174943
aF0.01331680213068831
aF0.014336917562723981
aF0.01309062564478779
aF0.01277434259699664
aF0.013260655474887173
aF0.013161749791530473
aF0.014488454869033461
aF0.010784047748236545
aF0.01376588812921577
aF0.011788306360726655
aF0.01418181818181815
aF0.010271658332207032
aF0.012819040180109782
aF0.012045475051881232
aF0.01529489186919914
aF0.00984790703934674
aF0.012769573505431632
aF0.01490339969649608
aF0.017850248677128477
aF0.009678573025168738
aF0.011580350167731235
aF0.01668409328544798
aF0.01891898037610565
aF0.008715083798882662
aF0.012276144279178803
aF0.01688589504346635
aF0.019897552646556585
aF0.007237635705669465
aF0.013544900540416203
aF0.0162402923709456
aF0.01823729124610016
aF0.006962322863730983
aF0.014212123999632014
aF0.01513350402340889
aF0.01545299617705307
aF0.006462325539649045
aF0.01504036060069449
aF0.01361103498675433
aF0.013542820228866709
aF0.006185844278094029
aF0.01503102735003444
aF0.014327105149088554
aF0.014406838078169126
aF0.006188895865099995
aF0.014800854956217933
aF0.014576463899943116
aF0.01698572281136662
aF0.005895671277096537
aF0.014361213235294084
aF0.014418149101428116
aF0.021333761998805812
aF0.00546411376105698
aF0.013838041951601359
aF0.014115611410878096
aF0.022278643152862546
aF0.00574417201224826
aF0.013979732842008258
aF0.012569736991916172
aF0.021268315018314967
aF0.005312144276052931
aF0.014541257934218085
aF0.011701375424830612
aF0.019249322368723253
aF0.005355469272995034
aF0.014523014105419417
aF0.01192243564853936
aF0.016657895338992708
aF0.005715944358854119
aF0.014013478968161715
aF0.013093252290747861
aF0.014489777290982076
aF0.00541471818853063
aF0.011567406856824279
aF0.013532015882433449
aF0.013311791744413567
aF0.004518173848540013
aF0.010242150388135765
aF0.014071315987847468
aF0.011471321695760572
aF0.00491444802633061
aF0.010136461243621395
aF0.014918574194283076
aF0.011453485745267222
aF0.00737406410459407
aF0.01014105282566606
aF0.014982380356939832
aF0.012181066238785029
aF0.00951216197852967
aF0.010216290842153681
aF0.014686491156276963
aF0.01226661856228012
aF0.010442622208127552
aF0.01093800266556365
aF0.015381109718582623
aF0.012071256446636461
aF0.010355063104706205
aF0.011681707819872619
aF0.016463540118445988
aF0.010565121611293417
aF0.01023186169971412
aF0.010730838603621062
aF0.017669302165692638
aF0.009108082579948704
aF0.009355769012421352
aF0.010163248601700672
aF0.017873920117326202
aF0.008235716529778716
aF0.00800362770660921
aF0.009118059640707703
aF0.018447559828373407
aF0.008327893943145225
aF0.007387097505155089
aF0.008108230192429289
aF0.018793206061438403
aF0.007462352097525978
aF0.0070492769391178045
aF0.009140601964208739
aF0.017996619924176636
aF0.006020201119311453
aF0.007218664433934495
aF0.009529671933064292
aF0.019036749600547777
aF0.005814993737699038
aF0.007512181916621531
aF0.008657413769410451
aF0.018189702391820297
aF0.006370850564434992
aF0.007933817047535074
aF0.009036560128765213
aF0.016062602965403586
aF0.00804114912063968
aF0.007559981892258923
aF0.010321895349374196
aF0.015314674075264585
aF0.009267861593890894
aF0.006437427748940303
aF0.012166859791425231
aF0.015272811166224443
aF0.010311395003992219
aF0.006026699415523854
aF0.014087126319215179
aF0.013382641858315003
aF0.00978185993111364
aF0.006339324259844115
aF0.015445184736523282
aF0.013547508597013517
aF0.009679649688868381
aF0.007286677411300008
aF0.01723856399729404
aF0.014512116465493378
aF0.00914380714879466
aF0.00760085311067748
aF0.017107418675403656
aF0.0159863632175435
aF0.008941567893532938
aF0.008967897198383487
aF0.016912127404693073
aF0.01696788304362837
aF0.009559078810322856
aF0.01059245146071491
aF0.016198805661353233
aF0.01599336298481318
aF0.009440982234210749
aF0.011028996316134403
aF0.015779324616687008
aF0.01667203979182974
aF0.009253000815755717
aF0.01214711506017318
aF0.01573393631053322
aF0.019201140570745234
aF0.010595041706359323
aF0.011762853672799218
aF0.016360640301318227
aF0.021551230024990205
aF0.011337763115096855
aF0.012629394916668518
aF0.01901158555213494
aF0.02207328789057134
aF0.012139077151610778
aF0.013966859833393666
aF0.01885201751715412
aF0.021719848074779908
aF0.01428670825892336
aF0.014568512920748166
aF0.016317777052543204
aF0.021536089952847247
aF0.016141358467844615
aF0.014256758295565797
aF0.01369863013698627
aF0.020346339919518876
aF0.016704736854248826
aF0.014036531559335175
aF0.01248049921996877
aF0.020136511031996145
aF0.01665551685159977
aF0.013854164277358501
aF0.011401977894124464
aF0.01895066918130378
aF0.015001382615909265
aF0.013993566176470556
aF0.011841064532638505
aF0.020768078442053608
aF0.01580177220461325
aF0.014312297548760563
aF0.010921596876888016
aF0.02241653418124001
aF0.01696523630977175
aF0.01453561684664233
aF0.011745627244295119
aF0.023371908327660486
aF0.017369040204830075
aF0.013514130484408497
aF0.011448701012769678
aF0.024872796656369194
aF0.016425209928947086
aF0.011364154990643943
aF0.012039249344684377
aF0.024650930095056114
aF0.016088823230691066
aF0.0100262048535946
aF0.012232415902140643
aF0.023883862439891466
aF0.014401627407013536
aF0.009556827771822162
aF0.011789229878401825
aF0.021838241998723393
aF0.014217459875684168
aF0.009735300152755273
aF0.011501154734411058
aF0.019053472649047283
aF0.013551836355183604
aF0.011055390927741028
aF0.012249417518281824
aF0.019220684466130053
aF0.015819605094053005
aF0.013430902438470073
aF0.01087081692346666
aF0.019938475561125622
aF0.017487366318016177
aF0.014630494941704816
aF0.010275862068965493
aF0.0221020938825783
aF0.020915557866376715
aF0.015120648286477398
aF0.011583989682649322
aF0.02330132435261452
aF0.022843844984802377
aF0.01612025574751731
aF0.013762102351313938
aF0.024435621100396994
aF0.024332231287015615
aF0.016997682134254382
aF0.014520813165537235
aF0.026162526162526102
aF0.02586616041765537
aF0.016268313244776556
aF0.01418717848162584
aF0.02528609607345982
aF0.024686974839641114
aF0.015364916773367442
aF0.015150465368715177
aF0.023281978279337763
aF0.025102919604410103
aF0.014637270149117155
aF0.016675146861556925
aF0.02038841661483166
aF0.02443404697764539
aF0.013699255673775026
aF0.015976290259093712
aF0.018358581193423196
aF0.024535368860231308
aF0.012590092144877264
aF0.014670548008501953
aF0.016846392372842096
aF0.02672843905915888
aF0.010094335323337715
aF0.013781659791200909
aF0.015537673059530122
aF0.02616857874277039
aF0.008840483948141882
aF0.013672233437327918
aF0.017072377589891254
aF0.02485487501480861
aF0.008809670149559495
aF0.014033002696896252
aF0.019061992105874115
aF0.024307931937790517
aF0.008596379514236313
aF0.014561106277759937
aF0.021073862846014695
aF0.025201160952358418
aF0.008988355993372202
aF0.015693472524951207
aF0.022701528076380647
aF0.026936661172592354
aF0.010390021957126988
aF0.01627174737422717
aF0.024443827760048043
aF0.02658948656407354
aF0.01156030286641425
aF0.014700477765527345
aF0.02750046219264183
aF0.02580872011251752
aF0.012947311634598065
aF0.013899720170649997
aF0.028222078402366797
aF0.02415016327201817
aF0.013646668013377295
aF0.016166440857005037
aF0.026518748407717008
aF0.024709336465061595
aF0.014158458051921794
aF0.017496388360200836
aF0.025197651301493307
aF0.02608145474996479
aF0.01537596942789701
aF0.018765771966047215
aF0.02274770103021498
aF0.025596832421101605
aF0.01572227736172513
aF0.01815094426214457
aF0.020014706558205753
aF0.02536156427166487
aF0.016718533493855447
aF0.016998665869255147
aF0.02014997469752031
aF0.025636883884068613
aF0.016586921850079706
aF0.014914037146999896
aF0.018959638776262396
aF0.025437422095009404
aF0.015856742532977888
aF0.013083638541450686
aF0.020608303457846602
aF0.024400962161161936
aF0.0144084991906618
aF0.01077451953025861
aF0.021708342039887574
aF0.02501622924974491
aF0.013318433715706143
aF0.01210207233581519
aF0.023141344157510384
aF0.02370428956918204
aF0.012358910044464684
aF0.014144887666208129
aF0.02426310745424365
aF0.023678735887426604
aF0.012004829267181457
aF0.014414085663458434
aF0.02577005898324121
aF0.02418184371927519
aF0.011595061278418124
aF0.013674008008736771
aF0.027243552203143603
aF0.025580904593308106
aF0.012663994169096181
aF0.01295042486481571
aF0.029937873637322632
aF0.024074420344053795
aF0.013372145911034264
aF0.012528370403994524
aF0.03186839012925962
aF0.023146634278506974
aF0.01447532614861029
aF0.011566986459821706
aF0.03198092945313783
aF0.02259067842192647
aF0.014439121847117818
aF0.00995622887986753
aF0.03221917549167919
aF0.021772720887765083
aF0.014593735814797969
aF0.008018535765395343
aF0.030094460530687733
aF0.01955904106694212
aF0.014236811679626364
aF0.006828269033799916
aF0.02644104907420623
aF0.02053957510810298
aF0.012795543074553824
aF0.006508283269615859
aF0.02496311455904044
aF0.018662409915725677
aF0.011905568733762539
aF0.008080302271589183
aF0.02602221640779233
aF0.02056131931211325
aF0.01092846820809246
aF0.010366117604173762
aF0.027478384460499754
aF0.020752544125596323
aF0.011163483006698064
aF0.010715101667808976
aF0.028133777053978078
aF0.021259083319615218
aF0.012707082562181166
aF0.011840417735434197
aF0.02757275163367959
aF0.020758567307015644
aF0.014747397186024944
aF0.012994751678775208
aF0.02515218724930389
aF0.020584235945046138
aF0.016670808014637745
aF0.014550294907396748
aF0.02300638804422124
aF0.020357775086182753
aF0.017816014090231636
aF0.016417910447761155
aF0.021266061534834322
aF0.020809248554913246
aF0.019871142760257667
aF0.018721251149953957
aF0.02186166073155196
aF0.022009613394356104
aF0.02144602298434526
aF0.01991867116961881
aF0.023243192222379482
aF0.024730515525523397
aF0.0211893214884648
aF0.019011669390291575
aF0.022732632174692204
aF0.0270896412514909
aF0.019831635315740465
aF0.017970011534025332
aF0.02281144582576485
aF0.02630306101296721
aF0.01787092965166443
aF0.016073452207497823
aF0.024636481853646943
aF0.02399019108869656
aF0.01672908863920096
aF0.015366157537723189
aF0.02798710839376267
aF0.021965452847805735
aF0.01593326666060547
aF0.015658821903928484
aF0.028781777894260254
aF0.02042831284233287
aF0.014665090264198957
aF0.017472255342566224
aF0.02815858609983275
aF0.022139438379742006
aF0.01519929221206412
aF0.019452859843739276
aF0.02480032619384543
aF0.02276732219637691
aF0.015435451747238784
aF0.01932148040638602
aF0.022570442783208685
aF0.02253020777338906
aF0.01684581338632459
aF0.01904244973652663
aF0.022927015666793983
aF0.025123750817222318
aF0.01739972088416689
aF0.01682681463436636
aF0.023695210796608086
aF0.02668346045296567
aF0.016972744825108847
aF0.014194591680891173
aF0.025878136200716783
aF0.025456583679760787
aF0.01476916181084712
aF0.011397223466188957
aF0.027866682709661826
aF0.02391962629985206
aF0.013842771246522449
aF0.010033145211860588
aF0.029790621381705833
aF0.02236497177809786
aF0.014291501620453693
aF0.010422737257363136
aF0.029823922282938602
aF0.021288235573949807
aF0.013511991892804833
aF0.01116954332973748
aF0.027930782354374777
aF0.020868153383314977
aF0.013019246824161165
aF0.010631334221158813
aF0.026575235492215268
aF0.02121306227753751
aF0.01244436370242526
aF0.00985823139711034
aF0.028487038031538278
aF0.022669182810596416
aF0.012517956084547477
aF0.010917968308506044
aF0.03241228822909252
aF0.023972848299433483
aF0.014054300707278087
aF0.012503674226151416
aF0.036760384012539095
aF0.024953524953524892
aF0.015838913903046613
aF0.01470654780759307
aF0.039732011387061845
aF0.02427566471920824
aF0.016743781208484087
aF0.01490306214893999
aF0.041674857479850495
aF0.026972788303031684
aF0.016513719266772427
aF0.014611872146118688
aF0.040127858372264465
aF0.029042951859325383
aF0.01811233352634622
aF0.01477311889718549
aF0.03855669598020714
aF0.031091584994930643
aF0.02151164145710485
aF0.015627885503231728
aF0.037821186710021173
aF0.029646660212971854
aF0.02353845079276379
aF0.015343315359514902
aF0.038054244417813986
aF0.029474656169509575
aF0.024843126734936608
aF0.015856848538160568
aF0.041003223600664156
aF0.031670471656870765
aF0.025167198750961187
aF0.017554395528248678
aF0.04457572502685274
aF0.032337161030322074
aF0.024833321718121994
aF0.019162919405050112
aF0.04611056751467699
aF0.03287485798544796
aF0.024386845039018893
aF0.01899942495687172
aF0.04598993206588132
aF0.033031804840494554
aF0.02358194376613404
aF0.019637636116674677
aF0.04425752500183377
aF0.032795931097356096
aF0.022168348912562013
aF0.019353354044413715
aF0.044663915094339514
aF0.03177793730557542
aF0.019971602150787877
aF0.01968558388271629
aF0.04362125670763361
aF0.031144519187034612
aF0.01870530410678092
aF0.019156823467108702
aF0.044768686818385424
aF0.029902160132047866
aF0.017035775127768275
aF0.018232463914915127
aF0.04368361864300876
aF0.0275363710568012
aF0.01705075573801078
aF0.01736479933496509
aF0.042300760913095606
aF0.02666762679724436
aF0.015265043980080942
aF0.016435185185185146
aF0.04270017270292583
aF0.02601571483326939
aF0.01619451984872737
aF0.015518397742778474
aF0.04398015408013153
aF0.026127981607433598
aF0.01761238876690161
aF0.016069078567635547
aF0.04073026740090281
aF0.02731072252113752
aF0.018128492910258143
aF0.017246952345770186
aF0.03942236484818554
aF0.028666778708794437
aF0.01713798034783407
aF0.018176352241981317
aF0.035798237022526845
aF0.02943227450886087
aF0.01750086695179744
aF0.018404198746849742
aF0.0358254694036384
aF0.031883918473421966
aF0.018677961394250753
aF0.017856729812874384
aF0.032744736586785596
aF0.03151724800614963
aF0.019087869217908185
aF0.018595518595518553
aF0.0295953925079856
aF0.029384889145385396
aF0.018878013623788114
aF0.019209379923996617
aF0.028767057001838698
aF0.02749571886833403
aF0.018253542167549732
aF0.018645525771278405
aF0.02716472690394546
aF0.02722975254449851
aF0.017547958969086577
aF0.020326054094281214
aF0.026696516694350095
aF0.027130568874539122
aF0.01711279953243713
aF0.02113640054755105
aF0.027426566030479237
aF0.02797844838000428
aF0.017971217971217927
aF0.02152260221494736
aF0.03043635052289931
aF0.028592233009708666
aF0.019034495644253406
aF0.019809788912085315
aF0.03150494289279194
aF0.03001752848378608
aF0.01674680045525279
aF0.01890595676652529
aF0.03464010129243404
aF0.03307397741408319
aF0.016237596280618934
aF0.01710112775004618
aF0.03582039884956375
aF0.03388343124588637
aF0.01627762000415595
aF0.014847827090934247
aF0.035974973931178225
aF0.033679259007807494
aF0.016376024945143744
aF0.013558224011475871
aF0.038832649771223915
aF0.03305188713285696
aF0.01732323583223322
aF0.013832799517244547
aF0.04266389177939636
aF0.03329729729729722
aF0.018165325394241014
aF0.014424752038280145
aF0.043187879073938486
aF0.02982150111113759
aF0.017339828000093184
aF0.014594143810229766
aF0.040003767276494455
aF0.029349355077128412
aF0.01664293550570711
aF0.015051090858878728
aF0.03560204512406765
aF0.029739599493997113
aF0.016535488240652037
aF0.015363128491620076
aF0.03358121696833629
aF0.029294210564104948
aF0.016434007189878107
aF0.015091668759560686
aF0.03627959097912865
aF0.028622153979031142
aF0.01825314790452918
aF0.014351451091165852
aF0.03947521730011875
aF0.026915860874585012
aF0.021318743514762706
aF0.014158566843459027
aF0.041413081497026834
aF0.02733660602560394
aF0.02265785922295612
aF0.013594616713649145
aF0.04489852978867158
aF0.03132082750638947
aF0.023855729635064077
aF0.013270421704511913
aF0.043917976378684914
aF0.03412516580248394
aF0.023199716211422434
aF0.013538028935552601
aF0.04100227790432792
aF0.033595218585819556
aF0.023209501908442134
aF0.013552847007458582
aF0.03908559722513202
aF0.0343954878519089
aF0.024154014563799855
aF0.014108300611816239
aF0.036408049319529984
aF0.03482503364737542
aF0.024170265562740035
aF0.014098644887530196
aF0.03593204561321844
aF0.03494436299838968
aF0.027670912088699783
aF0.014495400278494271
aF0.03485560154397053
aF0.03551289742051581
aF0.029635294679986546
aF0.015505469160329712
aF0.03397461186790737
aF0.03379445694318119
aF0.031428503142850235
aF0.01530146857611964
aF0.034387544376638664
aF0.03123510912036588
aF0.031298493566022795
aF0.015499817916970103
aF0.033224665325657134
aF0.029124139568003728
aF0.02740149246637191
aF0.016062070373647278
aF0.031901387317928874
aF0.027386857156418285
aF0.025026118339823284
aF0.016729676499218943
aF0.031146332473276743
aF0.02330528505247229
aF0.021872701824306638
aF0.015568158709356676
aF0.029386065762244125
aF0.02158120666069149
aF0.020003796687390205
aF0.01266421795074022
aF0.028509629765986266
aF0.021525171705728194
aF0.019812526629740045
aF0.01308204989642436
aF0.029105307029730413
aF0.023030045351473866
aF0.019460300985988537
aF0.014492427481603135
aF0.030687731908240107
aF0.023553796872055718
aF0.02046583924071496
aF0.014970396884356463
aF0.03417135062674905
aF0.02457297679349741
aF0.020685760007530602
aF0.01600666381503407
aF0.03667069902037516
aF0.023698027529445095
aF0.021761169397618716
aF0.016373505101236422
aF0.035511702178368756
aF0.024525693583754348
aF0.021301691396758696
aF0.01747716946331365
aF0.03545879435330018
aF0.02515647857262758
aF0.020934243791791648
aF0.01840090090090086
aF0.036381818614728834
aF0.027541660663689124
aF0.020734597156398055
aF0.01771769060623839
aF0.039577962379451825
aF0.03194044188280492
aF0.020355750023780032
aF0.01674798592987628
aF0.039072737235841995
aF0.03515859846571908
aF0.019047166674583147
aF0.016559379478197536
aF0.0389709204175285
aF0.03575793888556013
aF0.019473434535104316
aF0.01639530394895198
aF0.03943300195024487
aF0.03672768059566132
aF0.021099744245524247
aF0.0187297340196367
aF0.035652359801429806
aF0.033135190622836465
aF0.02303199413559076
aF0.02072102809052651
aF0.033468318246784104
aF0.03247544626854964
aF0.02456804733727805
aF0.01942700604953768
aF0.03112628309982687
aF0.03497412444337457
aF0.02351965892941728
aF0.018081940947585216
aF0.030530554239696753
aF0.03550053093927977
aF0.022701448726446305
aF0.01756075194864737
aF0.028642943162766468
aF0.04171001379043369
aF0.022102184271359102
aF0.01813542959591776
aF0.026157935593140537
aF0.04476925683033651
aF0.02315130696656701
aF0.018651296829971138
aF0.02527694329703336
aF0.044271021509261155
aF0.02360283421707094
aF0.017928241007111417
aF0.02445308474258672
aF0.042462027297017445
aF0.022165527572324636
aF0.01673169612118426
aF0.024258318308473963
aF0.039864230519245945
aF0.022995241555519037
aF0.014850348879911827
aF0.027803174156644798
aF0.037286906057308576
aF0.023615215046198526
aF0.014946276058407532
aF0.029273784950272025
aF0.03537273321550484
aF0.023286931618113047
aF0.016038473928850806
aF0.030322292063940413
aF0.029745350777490194
aF0.02318908748824077
aF0.015461185741606914
aF0.030024293025778838
aF0.03056006591861951
aF0.024161294876017446
aF0.016718623715506253
aF0.028351244343891333
aF0.030364519168055583
aF0.023564203065223967
aF0.019289340101522796
aF0.028312570781426887
aF0.02918726897412503
aF0.023354714409905726
aF0.021423141600055234
aF0.026954368588609768
aF0.028873390302539742
aF0.023450860958181975
aF0.021632905875065903
aF0.0248035305501144
aF0.028649548264384143
aF0.022861028394569573
aF0.021430540242557833
aF0.023010274134747353
aF0.029319995236393878
aF0.021515720319098965
aF0.021511829197922626
aF0.021938751360817858
aF0.030705134380117446
aF0.022020420646496914
aF0.019875229017370485
aF0.021423323932980964
aF0.033723698916370975
aF0.023233278184826227
aF0.02057900244157651
aF0.021793260451990745
aF0.031987758670941335
aF0.023676648697428047
aF0.021101173840134102
aF0.02212431305666093
aF0.02978661423057308
aF0.024194699528952694
aF0.02154921374490385
aF0.02238735327527446
aF0.027774414606387805
aF0.02589783946201167
aF0.02221808622013349
aF0.02383321487799094
aF0.02919070940212377
aF0.026146756130757596
aF0.02386046511627901
aF0.024032769806317127
aF0.030442804428044205
aF0.02787789101844994
aF0.023930552654179087
aF0.02385704780914356
aF0.032498720042908956
aF0.02935894058765768
aF0.022953185743883366
aF0.024690479578767553
aF0.03440928683385571
aF0.03068726948388489
aF0.02337037728800891
aF0.023668219327075347
aF0.03697351334133723
aF0.029193193096269686
aF0.024338352193023414
aF0.020897632229944584
aF0.03709322241252743
aF0.028492937544064307
aF0.023796710110676873
aF0.01968836532594917
aF0.03668607342086663
aF0.029291652486751835
aF0.023448824051994145
aF0.02092728297632464
aF0.03549720398735707
aF0.030046375396631606
aF0.02152920320955397
aF0.021810429649065214
aF0.03367142926805473
aF0.02882613700374708
aF0.01887538064576113
aF0.022888565117262717
aF0.03179459565302518
aF0.028573530854507926
aF0.017569004577187994
aF0.023623345423712788
aF0.031489487129101906
aF0.03078094676591242
aF0.017054620880387145
aF0.024116286752560234
aF0.032629038613081085
aF0.0327327401345788
aF0.018379147354412328
aF0.02653697232977612
aF0.03483722185422331
aF0.0321651818674016
aF0.018975807553874846
aF0.02978633083345118
aF0.03649509803921559
aF0.0315624002161471
aF0.018542083257589485
aF0.031485106483337584
aF0.03651254052209511
aF0.029710481877584908
aF0.019025078512584725
aF0.0320241834541718
aF0.0355621187179238
aF0.02844366248808731
aF0.02002095481049558
aF0.03145655998858711
aF0.03263980757666859
aF0.02727716727716721
aF0.020705678686134665
aF0.03088516746411476
aF0.03226502902653161
aF0.026094788344976933
aF0.022724164653325378
aF0.02939902805177301
aF0.034854352584610115
aF0.02658089573977418
aF0.02308043875685552
aF0.030237893974157635
aF0.03456138245529813
aF0.026182942441003776
aF0.023227104384801738
aF0.031507677427155045
aF0.032753866442872474
aF0.02632531428709305
aF0.022186678852964645
aF0.03318777292576411
aF0.03209604898115366
aF0.027868259138617377
aF0.021364497500627647
aF0.035663927651091464
aF0.031492294438594734
aF0.029495603439945815
aF0.020528126495181195
aF0.0380003419053898
aF0.02959003483987966
aF0.03025751592819586
aF0.01998772085408277
aF0.036315583398590354
aF0.028005529602440585
aF0.030322157752907114
aF0.019952223865316754
aF0.03445656169587052
aF0.02907657388603505
aF0.028781858707239004
aF0.020467702967588958
aF0.03164696380057265
aF0.029366010099801283
aF0.028926619261839044
aF0.02119956280171231
aF0.03155339805825235
aF0.02808490226645874
aF0.028699961508852893
aF0.023658119658119602
aF0.031015544549600274
aF0.029382769482314962
aF0.02988047808764933
aF0.024772670297864525
aF0.031015544549600274
aF0.029217899858584334
aF0.02975119364668051
aF0.025250683682771134
aF0.030624494695837442
aF0.02814075153484143
aF0.02907617814852095
aF0.02441749122247042
aF0.03088784248664203
aF0.026757122186113747
aF0.028650957431491986
aF0.021567691643371693
aF0.030678437301858187
aF0.02655412774432162
aF0.025848026063625847
aF0.020604738862763757
aF0.030810612544320746
aF0.027143196390406014
aF0.02509329250789392
aF0.019911103047895454
aF0.031116459551058424
aF0.02574191713283392
aF0.024264881663877542
aF0.020460821148884114
aF0.03507078507078498
aF0.02613993246593774
aF0.02461795606494741
aF0.01884311013355702
aF0.03632934636954678
aF0.028844565089106506
aF0.025573065902578733
aF0.01794394221596325
aF0.03496017666178688
aF0.03072262065374321
aF0.027683480755438614
aF0.01683631736799051
aF0.03513727822380802
aF0.032599139876921535
aF0.027368773305287246
aF0.014635589748258718
aF0.0347632587464457
aF0.033294238732377426
aF0.026776519052523106
aF0.013062673524190948
aF0.03452266627268465
aF0.031444738915550385
aF0.025015004201176267
aF0.012522524577450303
aF0.03406248467310796
aF0.03165192445613189
aF0.023791195573730998
aF0.012751953928424486
aF0.03441612445575061
aF0.0307596780741766
aF0.02359553283752023
aF0.013004822526455299
aF0.03496947496947488
aF0.02892875789073988
aF0.02338326635001821
aF0.013021190901185378
aF0.03458935786962652
aF0.028653837060853872
aF0.023961154625088393
aF0.013279908414424698
aF0.03498132065401961
aF0.025104110298096546
aF0.02449266919118355
aF0.013344911110095486
aF0.03707383265889642
aF0.023953220768851362
aF0.023822128110111113
aF0.014201561715146777
aF0.03472172092687496
aF0.024047954866008404
aF0.023692145694730236
aF0.01479809380486578
aF0.03363400825256685
aF0.023454707343361865
aF0.022574011191352952
aF0.015567744725402245
aF0.03323125508397523
aF0.021271638591831454
aF0.021864568431091982
aF0.016219659227916884
aF0.03140113882734131
aF0.022538222036339924
aF0.0223370957033102
aF0.014771851918981343
aF0.029189649866243627
aF0.024262264632815528
aF0.02139578674826404
aF0.012750784229649493
aF0.02915179533858713
aF0.027467389779793287
aF0.022912603106713926
aF0.011370007400596507
aF0.034495801497843925
aF0.037974367924998656
aF0.02606681297244568
aF0.011102886750555117
aF0.02833893050891235
aF0.03516635504443809
aF0.023112173739788744
aF0.009373678522764625
asg26
g27
(g28
(I0
tp49
g30
tp50
Rp51
(I1
(I3
tp52
g7
I00
S"\xb3\xa2\xbd\xd2\x04\x1a\xdb?\x8c\xa8T>\x91\xfa\xed?\x14\xd2'\xd7\x19\xd7\xe9?"
p53
tp54
bsg36
g3
(g7
S'\t\x0b\x84\xcc\x19\x7f\xd2\xbf'
p55
tp56
Rp57
ssVnr_samples
p58
I2
s.